
bomb:     file format elf64-x86-64


Disassembly of section .init:

0000000000000eb0 <_init>:
 eb0:	48 83 ec 08          	sub    $0x8,%rsp
 eb4:	48 8b 05 25 31 20 00 	mov    0x203125(%rip),%rax        # 203fe0 <__gmon_start__>
 ebb:	48 85 c0             	test   %rax,%rax
 ebe:	74 02                	je     ec2 <_init+0x12>
 ec0:	ff d0                	callq  *%rax
 ec2:	48 83 c4 08          	add    $0x8,%rsp
 ec6:	c3                   	retq   

Disassembly of section .plt:

0000000000000ed0 <.plt>:
     ed0:	ff 35 32 31 20 00    	pushq  0x203132(%rip)        # 204008 <_GLOBAL_OFFSET_TABLE_+0x8>
     ed6:	ff 25 34 31 20 00    	jmpq   *0x203134(%rip)        # 204010 <_GLOBAL_OFFSET_TABLE_+0x10>
     edc:	0f 1f 40 00          	nopl   0x0(%rax)

0000000000000ee0 <getenv@plt>:
     ee0:	ff 25 32 31 20 00    	jmpq   *0x203132(%rip)        # 204018 <getenv@GLIBC_2.2.5>
     ee6:	68 00 00 00 00       	pushq  $0x0
     eeb:	e9 e0 ff ff ff       	jmpq   ed0 <.plt>

0000000000000ef0 <__errno_location@plt>:
     ef0:	ff 25 2a 31 20 00    	jmpq   *0x20312a(%rip)        # 204020 <__errno_location@GLIBC_2.2.5>
     ef6:	68 01 00 00 00       	pushq  $0x1
     efb:	e9 d0 ff ff ff       	jmpq   ed0 <.plt>

0000000000000f00 <strcpy@plt>:
     f00:	ff 25 22 31 20 00    	jmpq   *0x203122(%rip)        # 204028 <strcpy@GLIBC_2.2.5>
     f06:	68 02 00 00 00       	pushq  $0x2
     f0b:	e9 c0 ff ff ff       	jmpq   ed0 <.plt>

0000000000000f10 <puts@plt>:
     f10:	ff 25 1a 31 20 00    	jmpq   *0x20311a(%rip)        # 204030 <puts@GLIBC_2.2.5>
     f16:	68 03 00 00 00       	pushq  $0x3
     f1b:	e9 b0 ff ff ff       	jmpq   ed0 <.plt>

0000000000000f20 <write@plt>:
     f20:	ff 25 12 31 20 00    	jmpq   *0x203112(%rip)        # 204038 <write@GLIBC_2.2.5>
     f26:	68 04 00 00 00       	pushq  $0x4
     f2b:	e9 a0 ff ff ff       	jmpq   ed0 <.plt>

0000000000000f30 <strlen@plt>:
     f30:	ff 25 0a 31 20 00    	jmpq   *0x20310a(%rip)        # 204040 <strlen@GLIBC_2.2.5>
     f36:	68 05 00 00 00       	pushq  $0x5
     f3b:	e9 90 ff ff ff       	jmpq   ed0 <.plt>

0000000000000f40 <htons@plt>:
     f40:	ff 25 02 31 20 00    	jmpq   *0x203102(%rip)        # 204048 <htons@GLIBC_2.2.5>
     f46:	68 06 00 00 00       	pushq  $0x6
     f4b:	e9 80 ff ff ff       	jmpq   ed0 <.plt>

0000000000000f50 <printf@plt>:
     f50:	ff 25 fa 30 20 00    	jmpq   *0x2030fa(%rip)        # 204050 <printf@GLIBC_2.2.5>
     f56:	68 07 00 00 00       	pushq  $0x7
     f5b:	e9 70 ff ff ff       	jmpq   ed0 <.plt>

0000000000000f60 <alarm@plt>:
     f60:	ff 25 f2 30 20 00    	jmpq   *0x2030f2(%rip)        # 204058 <alarm@GLIBC_2.2.5>
     f66:	68 08 00 00 00       	pushq  $0x8
     f6b:	e9 60 ff ff ff       	jmpq   ed0 <.plt>

0000000000000f70 <close@plt>:
     f70:	ff 25 ea 30 20 00    	jmpq   *0x2030ea(%rip)        # 204060 <close@GLIBC_2.2.5>
     f76:	68 09 00 00 00       	pushq  $0x9
     f7b:	e9 50 ff ff ff       	jmpq   ed0 <.plt>

0000000000000f80 <read@plt>:
     f80:	ff 25 e2 30 20 00    	jmpq   *0x2030e2(%rip)        # 204068 <read@GLIBC_2.2.5>
     f86:	68 0a 00 00 00       	pushq  $0xa
     f8b:	e9 40 ff ff ff       	jmpq   ed0 <.plt>

0000000000000f90 <fgets@plt>:
     f90:	ff 25 da 30 20 00    	jmpq   *0x2030da(%rip)        # 204070 <fgets@GLIBC_2.2.5>
     f96:	68 0b 00 00 00       	pushq  $0xb
     f9b:	e9 30 ff ff ff       	jmpq   ed0 <.plt>

0000000000000fa0 <strcmp@plt>:
     fa0:	ff 25 d2 30 20 00    	jmpq   *0x2030d2(%rip)        # 204078 <strcmp@GLIBC_2.2.5>
     fa6:	68 0c 00 00 00       	pushq  $0xc
     fab:	e9 20 ff ff ff       	jmpq   ed0 <.plt>

0000000000000fb0 <signal@plt>:
     fb0:	ff 25 ca 30 20 00    	jmpq   *0x2030ca(%rip)        # 204080 <signal@GLIBC_2.2.5>
     fb6:	68 0d 00 00 00       	pushq  $0xd
     fbb:	e9 10 ff ff ff       	jmpq   ed0 <.plt>

0000000000000fc0 <gethostbyname@plt>:
     fc0:	ff 25 c2 30 20 00    	jmpq   *0x2030c2(%rip)        # 204088 <gethostbyname@GLIBC_2.2.5>
     fc6:	68 0e 00 00 00       	pushq  $0xe
     fcb:	e9 00 ff ff ff       	jmpq   ed0 <.plt>

0000000000000fd0 <fprintf@plt>:
     fd0:	ff 25 ba 30 20 00    	jmpq   *0x2030ba(%rip)        # 204090 <fprintf@GLIBC_2.2.5>
     fd6:	68 0f 00 00 00       	pushq  $0xf
     fdb:	e9 f0 fe ff ff       	jmpq   ed0 <.plt>

0000000000000fe0 <memcpy@plt>:
     fe0:	ff 25 b2 30 20 00    	jmpq   *0x2030b2(%rip)        # 204098 <memcpy@GLIBC_2.14>
     fe6:	68 10 00 00 00       	pushq  $0x10
     feb:	e9 e0 fe ff ff       	jmpq   ed0 <.plt>

0000000000000ff0 <fflush@plt>:
     ff0:	ff 25 aa 30 20 00    	jmpq   *0x2030aa(%rip)        # 2040a0 <fflush@GLIBC_2.2.5>
     ff6:	68 11 00 00 00       	pushq  $0x11
     ffb:	e9 d0 fe ff ff       	jmpq   ed0 <.plt>

0000000000001000 <__isoc99_sscanf@plt>:
    1000:	ff 25 a2 30 20 00    	jmpq   *0x2030a2(%rip)        # 2040a8 <__isoc99_sscanf@GLIBC_2.7>
    1006:	68 12 00 00 00       	pushq  $0x12
    100b:	e9 c0 fe ff ff       	jmpq   ed0 <.plt>

0000000000001010 <bcopy@plt>:
    1010:	ff 25 9a 30 20 00    	jmpq   *0x20309a(%rip)        # 2040b0 <bcopy@GLIBC_2.2.5>
    1016:	68 13 00 00 00       	pushq  $0x13
    101b:	e9 b0 fe ff ff       	jmpq   ed0 <.plt>

0000000000001020 <fopen@plt>:
    1020:	ff 25 92 30 20 00    	jmpq   *0x203092(%rip)        # 2040b8 <fopen@GLIBC_2.2.5>
    1026:	68 14 00 00 00       	pushq  $0x14
    102b:	e9 a0 fe ff ff       	jmpq   ed0 <.plt>

0000000000001030 <bzero@plt>:
    1030:	ff 25 8a 30 20 00    	jmpq   *0x20308a(%rip)        # 2040c0 <bzero@GLIBC_2.2.5>
    1036:	68 15 00 00 00       	pushq  $0x15
    103b:	e9 90 fe ff ff       	jmpq   ed0 <.plt>

0000000000001040 <atoi@plt>:
    1040:	ff 25 82 30 20 00    	jmpq   *0x203082(%rip)        # 2040c8 <atoi@GLIBC_2.2.5>
    1046:	68 16 00 00 00       	pushq  $0x16
    104b:	e9 80 fe ff ff       	jmpq   ed0 <.plt>

0000000000001050 <sprintf@plt>:
    1050:	ff 25 7a 30 20 00    	jmpq   *0x20307a(%rip)        # 2040d0 <sprintf@GLIBC_2.2.5>
    1056:	68 17 00 00 00       	pushq  $0x17
    105b:	e9 70 fe ff ff       	jmpq   ed0 <.plt>

0000000000001060 <exit@plt>:
    1060:	ff 25 72 30 20 00    	jmpq   *0x203072(%rip)        # 2040d8 <exit@GLIBC_2.2.5>
    1066:	68 18 00 00 00       	pushq  $0x18
    106b:	e9 60 fe ff ff       	jmpq   ed0 <.plt>

0000000000001070 <connect@plt>:
    1070:	ff 25 6a 30 20 00    	jmpq   *0x20306a(%rip)        # 2040e0 <connect@GLIBC_2.2.5>
    1076:	68 19 00 00 00       	pushq  $0x19
    107b:	e9 50 fe ff ff       	jmpq   ed0 <.plt>

0000000000001080 <sleep@plt>:
    1080:	ff 25 62 30 20 00    	jmpq   *0x203062(%rip)        # 2040e8 <sleep@GLIBC_2.2.5>
    1086:	68 1a 00 00 00       	pushq  $0x1a
    108b:	e9 40 fe ff ff       	jmpq   ed0 <.plt>

0000000000001090 <__ctype_b_loc@plt>:
    1090:	ff 25 5a 30 20 00    	jmpq   *0x20305a(%rip)        # 2040f0 <__ctype_b_loc@GLIBC_2.3>
    1096:	68 1b 00 00 00       	pushq  $0x1b
    109b:	e9 30 fe ff ff       	jmpq   ed0 <.plt>

00000000000010a0 <socket@plt>:
    10a0:	ff 25 52 30 20 00    	jmpq   *0x203052(%rip)        # 2040f8 <socket@GLIBC_2.2.5>
    10a6:	68 1c 00 00 00       	pushq  $0x1c
    10ab:	e9 20 fe ff ff       	jmpq   ed0 <.plt>

Disassembly of section .plt.got:

00000000000010b0 <.plt.got>:
    10b0:	ff 25 42 2f 20 00    	jmpq   *0x202f42(%rip)        # 203ff8 <__cxa_finalize@GLIBC_2.2.5>
    10b6:	66 90                	xchg   %ax,%ax

Disassembly of section .text:

00000000000010c0 <_start>:
    10c0:	31 ed                	xor    %ebp,%ebp
    10c2:	49 89 d1             	mov    %rdx,%r9
    10c5:	5e                   	pop    %rsi
    10c6:	48 89 e2             	mov    %rsp,%rdx
    10c9:	48 83 e4 f0          	and    $0xfffffffffffffff0,%rsp
    10cd:	50                   	push   %rax
    10ce:	54                   	push   %rsp
    10cf:	4c 8d 05 1a 1b 00 00 	lea    0x1b1a(%rip),%r8        # 2bf0 <__libc_csu_fini>
    10d6:	48 8d 0d a3 1a 00 00 	lea    0x1aa3(%rip),%rcx        # 2b80 <__libc_csu_init>
    10dd:	48 8d 3d 0c 01 00 00 	lea    0x10c(%rip),%rdi        # 11f0 <main>
    10e4:	ff 15 ee 2e 20 00    	callq  *0x202eee(%rip)        # 203fd8 <__libc_start_main@GLIBC_2.2.5>
    10ea:	f4                   	hlt    
    10eb:	0f 1f 44 00 00       	nopl   0x0(%rax,%rax,1)

00000000000010f0 <deregister_tm_clones>:
    10f0:	48 8d 3d 89 36 20 00 	lea    0x203689(%rip),%rdi        # 204780 <stdout@@GLIBC_2.2.5>
    10f7:	48 8d 05 89 36 20 00 	lea    0x203689(%rip),%rax        # 204787 <__TMC_END__+0x7>
    10fe:	55                   	push   %rbp
    10ff:	48 29 f8             	sub    %rdi,%rax
    1102:	48 89 e5             	mov    %rsp,%rbp
    1105:	48 83 f8 0e          	cmp    $0xe,%rax
    1109:	76 15                	jbe    1120 <deregister_tm_clones+0x30>
    110b:	48 8b 05 be 2e 20 00 	mov    0x202ebe(%rip),%rax        # 203fd0 <_ITM_deregisterTMCloneTable>
    1112:	48 85 c0             	test   %rax,%rax
    1115:	74 09                	je     1120 <deregister_tm_clones+0x30>
    1117:	5d                   	pop    %rbp
    1118:	ff e0                	jmpq   *%rax
    111a:	66 0f 1f 44 00 00    	nopw   0x0(%rax,%rax,1)
    1120:	5d                   	pop    %rbp
    1121:	c3                   	retq   
    1122:	0f 1f 40 00          	nopl   0x0(%rax)
    1126:	66 2e 0f 1f 84 00 00 	nopw   %cs:0x0(%rax,%rax,1)
    112d:	00 00 00 

0000000000001130 <register_tm_clones>:
    1130:	48 8d 3d 49 36 20 00 	lea    0x203649(%rip),%rdi        # 204780 <stdout@@GLIBC_2.2.5>
    1137:	48 8d 35 42 36 20 00 	lea    0x203642(%rip),%rsi        # 204780 <stdout@@GLIBC_2.2.5>
    113e:	55                   	push   %rbp
    113f:	48 29 fe             	sub    %rdi,%rsi
    1142:	48 89 e5             	mov    %rsp,%rbp
    1145:	48 c1 fe 03          	sar    $0x3,%rsi
    1149:	48 89 f0             	mov    %rsi,%rax
    114c:	48 c1 e8 3f          	shr    $0x3f,%rax
    1150:	48 01 c6             	add    %rax,%rsi
    1153:	48 d1 fe             	sar    %rsi
    1156:	74 18                	je     1170 <register_tm_clones+0x40>
    1158:	48 8b 05 91 2e 20 00 	mov    0x202e91(%rip),%rax        # 203ff0 <_ITM_registerTMCloneTable>
    115f:	48 85 c0             	test   %rax,%rax
    1162:	74 0c                	je     1170 <register_tm_clones+0x40>
    1164:	5d                   	pop    %rbp
    1165:	ff e0                	jmpq   *%rax
    1167:	66 0f 1f 84 00 00 00 	nopw   0x0(%rax,%rax,1)
    116e:	00 00 
    1170:	5d                   	pop    %rbp
    1171:	c3                   	retq   
    1172:	0f 1f 40 00          	nopl   0x0(%rax)
    1176:	66 2e 0f 1f 84 00 00 	nopw   %cs:0x0(%rax,%rax,1)
    117d:	00 00 00 

0000000000001180 <__do_global_dtors_aux>:
    1180:	80 3d 21 36 20 00 00 	cmpb   $0x0,0x203621(%rip)        # 2047a8 <completed.6972>
    1187:	75 27                	jne    11b0 <__do_global_dtors_aux+0x30>
    1189:	48 83 3d 67 2e 20 00 	cmpq   $0x0,0x202e67(%rip)        # 203ff8 <__cxa_finalize@GLIBC_2.2.5>
    1190:	00 
    1191:	55                   	push   %rbp
    1192:	48 89 e5             	mov    %rsp,%rbp
    1195:	74 0c                	je     11a3 <__do_global_dtors_aux+0x23>
    1197:	48 8b 3d 6a 2f 20 00 	mov    0x202f6a(%rip),%rdi        # 204108 <__dso_handle>
    119e:	e8 0d ff ff ff       	callq  10b0 <.plt.got>
    11a3:	e8 48 ff ff ff       	callq  10f0 <deregister_tm_clones>
    11a8:	5d                   	pop    %rbp
    11a9:	c6 05 f8 35 20 00 01 	movb   $0x1,0x2035f8(%rip)        # 2047a8 <completed.6972>
    11b0:	f3 c3                	repz retq 
    11b2:	0f 1f 40 00          	nopl   0x0(%rax)
    11b6:	66 2e 0f 1f 84 00 00 	nopw   %cs:0x0(%rax,%rax,1)
    11bd:	00 00 00 

00000000000011c0 <frame_dummy>:
    11c0:	48 8d 3d 21 2c 20 00 	lea    0x202c21(%rip),%rdi        # 203de8 <__JCR_END__>
    11c7:	48 83 3f 00          	cmpq   $0x0,(%rdi)
    11cb:	75 0b                	jne    11d8 <frame_dummy+0x18>
    11cd:	e9 5e ff ff ff       	jmpq   1130 <register_tm_clones>
    11d2:	66 0f 1f 44 00 00    	nopw   0x0(%rax,%rax,1)
    11d8:	48 8b 05 09 2e 20 00 	mov    0x202e09(%rip),%rax        # 203fe8 <_Jv_RegisterClasses>
    11df:	48 85 c0             	test   %rax,%rax
    11e2:	74 e9                	je     11cd <frame_dummy+0xd>
    11e4:	55                   	push   %rbp
    11e5:	48 89 e5             	mov    %rsp,%rbp
    11e8:	ff d0                	callq  *%rax
    11ea:	5d                   	pop    %rbp
    11eb:	e9 40 ff ff ff       	jmpq   1130 <register_tm_clones>

00000000000011f0 <main>:
    11f0:	55                   	push   %rbp
    11f1:	48 89 e5             	mov    %rsp,%rbp
    11f4:	48 83 ec 20          	sub    $0x20,%rsp
    11f8:	89 7d ec             	mov    %edi,-0x14(%rbp)
    11fb:	48 89 75 e0          	mov    %rsi,-0x20(%rbp)
    11ff:	83 7d ec 01          	cmpl   $0x1,-0x14(%rbp)
    1203:	75 13                	jne    1218 <main+0x28>
    1205:	48 8b 05 84 35 20 00 	mov    0x203584(%rip),%rax        # 204790 <stdin@@GLIBC_2.2.5>
    120c:	48 89 05 9d 35 20 00 	mov    %rax,0x20359d(%rip)        # 2047b0 <infile>
    1213:	e9 88 00 00 00       	jmpq   12a0 <main+0xb0>
    1218:	83 7d ec 02          	cmpl   $0x2,-0x14(%rbp)
    121c:	75 5d                	jne    127b <main+0x8b>
    121e:	48 8b 45 e0          	mov    -0x20(%rbp),%rax
    1222:	48 83 c0 08          	add    $0x8,%rax
    1226:	48 8b 00             	mov    (%rax),%rax
    1229:	48 8d 35 d8 19 00 00 	lea    0x19d8(%rip),%rsi        # 2c08 <_IO_stdin_used+0x8>
    1230:	48 89 c7             	mov    %rax,%rdi
    1233:	e8 e8 fd ff ff       	callq  1020 <fopen@plt>
    1238:	48 89 05 71 35 20 00 	mov    %rax,0x203571(%rip)        # 2047b0 <infile>
    123f:	48 8b 05 6a 35 20 00 	mov    0x20356a(%rip),%rax        # 2047b0 <infile>
    1246:	48 85 c0             	test   %rax,%rax
    1249:	75 55                	jne    12a0 <main+0xb0>
    124b:	48 8b 45 e0          	mov    -0x20(%rbp),%rax
    124f:	48 83 c0 08          	add    $0x8,%rax
    1253:	48 8b 10             	mov    (%rax),%rdx
    1256:	48 8b 45 e0          	mov    -0x20(%rbp),%rax
    125a:	48 8b 00             	mov    (%rax),%rax
    125d:	48 89 c6             	mov    %rax,%rsi
    1260:	48 8d 3d a3 19 00 00 	lea    0x19a3(%rip),%rdi        # 2c0a <_IO_stdin_used+0xa>
    1267:	b8 00 00 00 00       	mov    $0x0,%eax
    126c:	e8 df fc ff ff       	callq  f50 <printf@plt>
    1271:	bf 08 00 00 00       	mov    $0x8,%edi
    1276:	e8 e5 fd ff ff       	callq  1060 <exit@plt>
    127b:	48 8b 45 e0          	mov    -0x20(%rbp),%rax
    127f:	48 8b 00             	mov    (%rax),%rax
    1282:	48 89 c6             	mov    %rax,%rsi
    1285:	48 8d 3d 9b 19 00 00 	lea    0x199b(%rip),%rdi        # 2c27 <_IO_stdin_used+0x27>
    128c:	b8 00 00 00 00       	mov    $0x0,%eax
    1291:	e8 ba fc ff ff       	callq  f50 <printf@plt>
    1296:	bf 08 00 00 00       	mov    $0x8,%edi
    129b:	e8 c0 fd ff ff       	callq  1060 <exit@plt>
    12a0:	e8 c2 07 00 00       	callq  1a67 <initialize_bomb>
    12a5:	48 8d 3d 9c 19 00 00 	lea    0x199c(%rip),%rdi        # 2c48 <_IO_stdin_used+0x48>
    12ac:	e8 5f fc ff ff       	callq  f10 <puts@plt>
    12b1:	48 8d 3d d0 19 00 00 	lea    0x19d0(%rip),%rdi        # 2c88 <_IO_stdin_used+0x88>
    12b8:	e8 53 fc ff ff       	callq  f10 <puts@plt>
    12bd:	e8 7c 08 00 00       	callq  1b3e <read_line>
    12c2:	48 89 45 f8          	mov    %rax,-0x8(%rbp)
    12c6:	48 8b 45 f8          	mov    -0x8(%rbp),%rax
    12ca:	48 89 c7             	mov    %rax,%rdi
    12cd:	e8 ca 00 00 00       	callq  139c <phase_1>
    12d2:	e8 0c 0a 00 00       	callq  1ce3 <phase_defused>
    12d7:	48 8d 3d da 19 00 00 	lea    0x19da(%rip),%rdi        # 2cb8 <_IO_stdin_used+0xb8>
    12de:	e8 2d fc ff ff       	callq  f10 <puts@plt>
    12e3:	e8 56 08 00 00       	callq  1b3e <read_line>
    12e8:	48 89 45 f8          	mov    %rax,-0x8(%rbp)
    12ec:	48 8b 45 f8          	mov    -0x8(%rbp),%rax
    12f0:	48 89 c7             	mov    %rax,%rdi
    12f3:	e8 cf 00 00 00       	callq  13c7 <phase_2>
    12f8:	e8 e6 09 00 00       	callq  1ce3 <phase_defused>
    12fd:	48 8d 3d dd 19 00 00 	lea    0x19dd(%rip),%rdi        # 2ce1 <_IO_stdin_used+0xe1>
    1304:	e8 07 fc ff ff       	callq  f10 <puts@plt>
    1309:	e8 30 08 00 00       	callq  1b3e <read_line>
    130e:	48 89 45 f8          	mov    %rax,-0x8(%rbp)
    1312:	48 8b 45 f8          	mov    -0x8(%rbp),%rax
    1316:	48 89 c7             	mov    %rax,%rdi
    1319:	e8 0b 01 00 00       	callq  1429 <phase_3>
    131e:	e8 c0 09 00 00       	callq  1ce3 <phase_defused>
    1323:	48 8d 3d d5 19 00 00 	lea    0x19d5(%rip),%rdi        # 2cff <_IO_stdin_used+0xff>
    132a:	e8 e1 fb ff ff       	callq  f10 <puts@plt>
    132f:	e8 0a 08 00 00       	callq  1b3e <read_line>
    1334:	48 89 45 f8          	mov    %rax,-0x8(%rbp)
    1338:	48 8b 45 f8          	mov    -0x8(%rbp),%rax
    133c:	48 89 c7             	mov    %rax,%rdi
    133f:	e8 2a 02 00 00       	callq  156e <phase_4>
    1344:	e8 9a 09 00 00       	callq  1ce3 <phase_defused>
    1349:	48 8d 3d c0 19 00 00 	lea    0x19c0(%rip),%rdi        # 2d10 <_IO_stdin_used+0x110>
    1350:	e8 bb fb ff ff       	callq  f10 <puts@plt>
    1355:	e8 e4 07 00 00       	callq  1b3e <read_line>
    135a:	48 89 45 f8          	mov    %rax,-0x8(%rbp)
    135e:	48 8b 45 f8          	mov    -0x8(%rbp),%rax
    1362:	48 89 c7             	mov    %rax,%rdi
    1365:	e8 83 02 00 00       	callq  15ed <phase_5>
    136a:	e8 74 09 00 00       	callq  1ce3 <phase_defused>
    136f:	48 8d 3d be 19 00 00 	lea    0x19be(%rip),%rdi        # 2d34 <_IO_stdin_used+0x134>
    1376:	e8 95 fb ff ff       	callq  f10 <puts@plt>
    137b:	e8 be 07 00 00       	callq  1b3e <read_line>
    1380:	48 89 45 f8          	mov    %rax,-0x8(%rbp)
    1384:	48 8b 45 f8          	mov    -0x8(%rbp),%rax
    1388:	48 89 c7             	mov    %rax,%rdi
    138b:	e8 e6 02 00 00       	callq  1676 <phase_6>
    1390:	e8 4e 09 00 00       	callq  1ce3 <phase_defused>
    1395:	b8 00 00 00 00       	mov    $0x0,%eax
    139a:	c9                   	leaveq 
    139b:	c3                   	retq   

000000000000139c <phase_1>:
    139c:	55                   	push   %rbp
    139d:	48 89 e5             	mov    %rsp,%rbp
    13a0:	48 83 ec 10          	sub    $0x10,%rsp
    13a4:	48 89 7d f8          	mov    %rdi,-0x8(%rbp)
    13a8:	48 8b 45 f8          	mov    -0x8(%rbp),%rax
    13ac:	48 8d 35 a5 19 00 00 	lea    0x19a5(%rip),%rsi        # 2d58 <_IO_stdin_used+0x158>
    13b3:	48 89 c7             	mov    %rax,%rdi
    13b6:	e8 2a 06 00 00       	callq  19e5 <strings_not_equal>
    13bb:	85 c0                	test   %eax,%eax
    13bd:	74 05                	je     13c4 <phase_1+0x28>
    13bf:	e8 f9 08 00 00       	callq  1cbd <explode_bomb>
    13c4:	90                   	nop
    13c5:	c9                   	leaveq 
    13c6:	c3                   	retq   

00000000000013c7 <phase_2>:
    13c7:	55                   	push   %rbp
    13c8:	48 89 e5             	mov    %rsp,%rbp
    13cb:	48 83 ec 30          	sub    $0x30,%rsp
    13cf:	48 89 7d d8          	mov    %rdi,-0x28(%rbp)
    13d3:	48 8d 55 e0          	lea    -0x20(%rbp),%rdx
    13d7:	48 8b 45 d8          	mov    -0x28(%rbp),%rax
    13db:	48 89 d6             	mov    %rdx,%rsi
    13de:	48 89 c7             	mov    %rax,%rdi
    13e1:	e8 62 05 00 00       	callq  1948 <read_six_numbers>
    13e6:	8b 45 e0             	mov    -0x20(%rbp),%eax
    13e9:	83 f8 01             	cmp    $0x1,%eax
    13ec:	74 05                	je     13f3 <phase_2+0x2c>
    13ee:	e8 ca 08 00 00       	callq  1cbd <explode_bomb>
    13f3:	c7 45 fc 01 00 00 00 	movl   $0x1,-0x4(%rbp)
    13fa:	eb 24                	jmp    1420 <phase_2+0x59>
    13fc:	8b 45 fc             	mov    -0x4(%rbp),%eax
    13ff:	48 98                	cltq   
    1401:	8b 54 85 e0          	mov    -0x20(%rbp,%rax,4),%edx
    1405:	8b 45 fc             	mov    -0x4(%rbp),%eax
    1408:	83 e8 01             	sub    $0x1,%eax
    140b:	48 98                	cltq   
    140d:	8b 44 85 e0          	mov    -0x20(%rbp,%rax,4),%eax
    1411:	01 c0                	add    %eax,%eax
    1413:	39 c2                	cmp    %eax,%edx
    1415:	74 05                	je     141c <phase_2+0x55>
    1417:	e8 a1 08 00 00       	callq  1cbd <explode_bomb>
    141c:	83 45 fc 01          	addl   $0x1,-0x4(%rbp)
    1420:	83 7d fc 05          	cmpl   $0x5,-0x4(%rbp)
    1424:	7e d6                	jle    13fc <phase_2+0x35>
    1426:	90                   	nop
    1427:	c9                   	leaveq 
    1428:	c3                   	retq   

0000000000001429 <phase_3>:
    1429:	55                   	push   %rbp
    142a:	48 89 e5             	mov    %rsp,%rbp
    142d:	48 83 ec 20          	sub    $0x20,%rsp
    1431:	48 89 7d e8          	mov    %rdi,-0x18(%rbp)
    1435:	c7 45 fc 00 00 00 00 	movl   $0x0,-0x4(%rbp)
    143c:	c7 45 f8 00 00 00 00 	movl   $0x0,-0x8(%rbp)
    1443:	48 8d 4d f0          	lea    -0x10(%rbp),%rcx
    1447:	48 8d 55 f4          	lea    -0xc(%rbp),%rdx
    144b:	48 8b 45 e8          	mov    -0x18(%rbp),%rax
    144f:	48 8d 35 26 19 00 00 	lea    0x1926(%rip),%rsi        # 2d7c <_IO_stdin_used+0x17c>
    1456:	48 89 c7             	mov    %rax,%rdi
    1459:	b8 00 00 00 00       	mov    $0x0,%eax
    145e:	e8 9d fb ff ff       	callq  1000 <__isoc99_sscanf@plt>
    1463:	89 45 f8             	mov    %eax,-0x8(%rbp)
    1466:	83 7d f8 01          	cmpl   $0x1,-0x8(%rbp)
    146a:	7f 05                	jg     1471 <phase_3+0x48>
    146c:	e8 4c 08 00 00       	callq  1cbd <explode_bomb>
    1471:	8b 45 f4             	mov    -0xc(%rbp),%eax
    1474:	83 f8 07             	cmp    $0x7,%eax
    1477:	77 5d                	ja     14d6 <phase_3+0xad>
    1479:	89 c0                	mov    %eax,%eax
    147b:	48 8d 14 85 00 00 00 	lea    0x0(,%rax,4),%rdx
    1482:	00 
    1483:	48 8d 05 fa 18 00 00 	lea    0x18fa(%rip),%rax        # 2d84 <_IO_stdin_used+0x184>
    148a:	8b 04 02             	mov    (%rdx,%rax,1),%eax
    148d:	48 63 d0             	movslq %eax,%rdx
    1490:	48 8d 05 ed 18 00 00 	lea    0x18ed(%rip),%rax        # 2d84 <_IO_stdin_used+0x184>
    1497:	48 01 d0             	add    %rdx,%rax
    149a:	ff e0                	jmpq   *%rax
    149c:	81 45 fc 8c 00 00 00 	addl   $0x8c,-0x4(%rbp)
    14a3:	81 6d fc a1 02 00 00 	subl   $0x2a1,-0x4(%rbp)
    14aa:	81 45 fc 81 00 00 00 	addl   $0x81,-0x4(%rbp)
    14b1:	81 6d fc 80 01 00 00 	subl   $0x180,-0x4(%rbp)
    14b8:	81 45 fc 80 01 00 00 	addl   $0x180,-0x4(%rbp)
    14bf:	81 6d fc 80 01 00 00 	subl   $0x180,-0x4(%rbp)
    14c6:	81 45 fc 80 01 00 00 	addl   $0x180,-0x4(%rbp)
    14cd:	81 6d fc 80 01 00 00 	subl   $0x180,-0x4(%rbp)
    14d4:	eb 05                	jmp    14db <phase_3+0xb2>
    14d6:	e8 e2 07 00 00       	callq  1cbd <explode_bomb>
    14db:	8b 45 f4             	mov    -0xc(%rbp),%eax
    14de:	83 f8 05             	cmp    $0x5,%eax
    14e1:	7f 08                	jg     14eb <phase_3+0xc2>
    14e3:	8b 45 f0             	mov    -0x10(%rbp),%eax
    14e6:	39 45 fc             	cmp    %eax,-0x4(%rbp)
    14e9:	74 05                	je     14f0 <phase_3+0xc7>
    14eb:	e8 cd 07 00 00       	callq  1cbd <explode_bomb>
    14f0:	90                   	nop
    14f1:	c9                   	leaveq 
    14f2:	c3                   	retq   

00000000000014f3 <func4>:
    14f3:	55                   	push   %rbp
    14f4:	48 89 e5             	mov    %rsp,%rbp
    14f7:	48 83 ec 20          	sub    $0x20,%rsp
    14fb:	89 7d ec             	mov    %edi,-0x14(%rbp)
    14fe:	89 75 e8             	mov    %esi,-0x18(%rbp)
    1501:	89 55 e4             	mov    %edx,-0x1c(%rbp)
    1504:	8b 45 e4             	mov    -0x1c(%rbp),%eax
    1507:	2b 45 e8             	sub    -0x18(%rbp),%eax
    150a:	89 c2                	mov    %eax,%edx
    150c:	c1 ea 1f             	shr    $0x1f,%edx
    150f:	01 d0                	add    %edx,%eax
    1511:	d1 f8                	sar    %eax
    1513:	89 c2                	mov    %eax,%edx
    1515:	8b 45 e8             	mov    -0x18(%rbp),%eax
    1518:	01 d0                	add    %edx,%eax
    151a:	89 45 fc             	mov    %eax,-0x4(%rbp)
    151d:	8b 45 fc             	mov    -0x4(%rbp),%eax
    1520:	3b 45 ec             	cmp    -0x14(%rbp),%eax
    1523:	7e 1e                	jle    1543 <func4+0x50>
    1525:	8b 45 fc             	mov    -0x4(%rbp),%eax
    1528:	8d 50 ff             	lea    -0x1(%rax),%edx
    152b:	8b 4d e8             	mov    -0x18(%rbp),%ecx
    152e:	8b 45 ec             	mov    -0x14(%rbp),%eax
    1531:	89 ce                	mov    %ecx,%esi
    1533:	89 c7                	mov    %eax,%edi
    1535:	e8 b9 ff ff ff       	callq  14f3 <func4>
    153a:	89 c2                	mov    %eax,%edx
    153c:	8b 45 fc             	mov    -0x4(%rbp),%eax
    153f:	01 d0                	add    %edx,%eax
    1541:	eb 29                	jmp    156c <func4+0x79>
    1543:	8b 45 fc             	mov    -0x4(%rbp),%eax
    1546:	3b 45 ec             	cmp    -0x14(%rbp),%eax
    1549:	7d 1e                	jge    1569 <func4+0x76>
    154b:	8b 45 fc             	mov    -0x4(%rbp),%eax
    154e:	8d 48 01             	lea    0x1(%rax),%ecx
    1551:	8b 55 e4             	mov    -0x1c(%rbp),%edx
    1554:	8b 45 ec             	mov    -0x14(%rbp),%eax
    1557:	89 ce                	mov    %ecx,%esi
    1559:	89 c7                	mov    %eax,%edi
    155b:	e8 93 ff ff ff       	callq  14f3 <func4>
    1560:	89 c2                	mov    %eax,%edx
    1562:	8b 45 fc             	mov    -0x4(%rbp),%eax
    1565:	01 d0                	add    %edx,%eax
    1567:	eb 03                	jmp    156c <func4+0x79>
    1569:	8b 45 fc             	mov    -0x4(%rbp),%eax
    156c:	c9                   	leaveq 
    156d:	c3                   	retq   

000000000000156e <phase_4>:
    156e:	55                   	push   %rbp
    156f:	48 89 e5             	mov    %rsp,%rbp
    1572:	48 83 ec 30          	sub    $0x30,%rsp
    1576:	48 89 7d d8          	mov    %rdi,-0x28(%rbp)
    157a:	48 8d 4d ec          	lea    -0x14(%rbp),%rcx
    157e:	48 8d 55 f0          	lea    -0x10(%rbp),%rdx
    1582:	48 8b 45 d8          	mov    -0x28(%rbp),%rax
    1586:	48 8d 35 ef 17 00 00 	lea    0x17ef(%rip),%rsi        # 2d7c <_IO_stdin_used+0x17c>
    158d:	48 89 c7             	mov    %rax,%rdi
    1590:	b8 00 00 00 00       	mov    $0x0,%eax
    1595:	e8 66 fa ff ff       	callq  1000 <__isoc99_sscanf@plt>
    159a:	89 45 fc             	mov    %eax,-0x4(%rbp)
    159d:	83 7d fc 02          	cmpl   $0x2,-0x4(%rbp)
    15a1:	75 0f                	jne    15b2 <phase_4+0x44>
    15a3:	8b 45 f0             	mov    -0x10(%rbp),%eax
    15a6:	85 c0                	test   %eax,%eax
    15a8:	78 08                	js     15b2 <phase_4+0x44>
    15aa:	8b 45 f0             	mov    -0x10(%rbp),%eax
    15ad:	83 f8 0e             	cmp    $0xe,%eax
    15b0:	7e 05                	jle    15b7 <phase_4+0x49>
    15b2:	e8 06 07 00 00       	callq  1cbd <explode_bomb>
    15b7:	c7 45 f8 13 00 00 00 	movl   $0x13,-0x8(%rbp)
    15be:	8b 45 f0             	mov    -0x10(%rbp),%eax
    15c1:	ba 0e 00 00 00       	mov    $0xe,%edx
    15c6:	be 00 00 00 00       	mov    $0x0,%esi
    15cb:	89 c7                	mov    %eax,%edi
    15cd:	e8 21 ff ff ff       	callq  14f3 <func4>
    15d2:	89 45 f4             	mov    %eax,-0xc(%rbp)
    15d5:	8b 45 f4             	mov    -0xc(%rbp),%eax
    15d8:	3b 45 f8             	cmp    -0x8(%rbp),%eax
    15db:	75 08                	jne    15e5 <phase_4+0x77>
    15dd:	8b 45 ec             	mov    -0x14(%rbp),%eax
    15e0:	3b 45 f8             	cmp    -0x8(%rbp),%eax
    15e3:	74 05                	je     15ea <phase_4+0x7c>
    15e5:	e8 d3 06 00 00       	callq  1cbd <explode_bomb>
    15ea:	90                   	nop
    15eb:	c9                   	leaveq 
    15ec:	c3                   	retq   

00000000000015ed <phase_5>:
    15ed:	55                   	push   %rbp
    15ee:	48 89 e5             	mov    %rsp,%rbp
    15f1:	48 83 ec 20          	sub    $0x20,%rsp
    15f5:	48 89 7d e8          	mov    %rdi,-0x18(%rbp)
    15f9:	48 8b 45 e8          	mov    -0x18(%rbp),%rax
    15fd:	48 89 c7             	mov    %rax,%rdi
    1600:	e8 ae 03 00 00       	callq  19b3 <string_length>
    1605:	89 45 f8             	mov    %eax,-0x8(%rbp)
    1608:	83 7d f8 06          	cmpl   $0x6,-0x8(%rbp)
    160c:	74 05                	je     1613 <phase_5+0x26>
    160e:	e8 aa 06 00 00       	callq  1cbd <explode_bomb>
    1613:	c7 45 fc 00 00 00 00 	movl   $0x0,-0x4(%rbp)
    161a:	eb 31                	jmp    164d <phase_5+0x60>
    161c:	8b 45 fc             	mov    -0x4(%rbp),%eax
    161f:	48 63 d0             	movslq %eax,%rdx
    1622:	48 8b 45 e8          	mov    -0x18(%rbp),%rax
    1626:	48 01 d0             	add    %rdx,%rax
    1629:	0f b6 00             	movzbl (%rax),%eax
    162c:	0f be c0             	movsbl %al,%eax
    162f:	83 e0 0f             	and    $0xf,%eax
    1632:	48 63 d0             	movslq %eax,%rdx
    1635:	48 8d 05 f4 2b 20 00 	lea    0x202bf4(%rip),%rax        # 204230 <array.2958>
    163c:	0f b6 14 02          	movzbl (%rdx,%rax,1),%edx
    1640:	8b 45 fc             	mov    -0x4(%rbp),%eax
    1643:	48 98                	cltq   
    1645:	88 54 05 f1          	mov    %dl,-0xf(%rbp,%rax,1)
    1649:	83 45 fc 01          	addl   $0x1,-0x4(%rbp)
    164d:	83 7d fc 05          	cmpl   $0x5,-0x4(%rbp)
    1651:	7e c9                	jle    161c <phase_5+0x2f>
    1653:	c6 45 f7 00          	movb   $0x0,-0x9(%rbp)
    1657:	48 8d 45 f1          	lea    -0xf(%rbp),%rax
    165b:	48 8d 35 42 17 00 00 	lea    0x1742(%rip),%rsi        # 2da4 <_IO_stdin_used+0x1a4>
    1662:	48 89 c7             	mov    %rax,%rdi
    1665:	e8 7b 03 00 00       	callq  19e5 <strings_not_equal>
    166a:	85 c0                	test   %eax,%eax
    166c:	74 05                	je     1673 <phase_5+0x86>
    166e:	e8 4a 06 00 00       	callq  1cbd <explode_bomb>
    1673:	90                   	nop
    1674:	c9                   	leaveq 
    1675:	c3                   	retq   

0000000000001676 <phase_6>:
    1676:	55                   	push   %rbp
    1677:	48 89 e5             	mov    %rsp,%rbp
    167a:	48 83 ec 70          	sub    $0x70,%rsp
    167e:	48 89 7d 98          	mov    %rdi,-0x68(%rbp)
    1682:	48 8d 05 f7 2b 20 00 	lea    0x202bf7(%rip),%rax        # 204280 <node1>
    1689:	48 89 45 e8          	mov    %rax,-0x18(%rbp)
    168d:	48 8d 55 d0          	lea    -0x30(%rbp),%rdx
    1691:	48 8b 45 98          	mov    -0x68(%rbp),%rax
    1695:	48 89 d6             	mov    %rdx,%rsi
    1698:	48 89 c7             	mov    %rax,%rdi
    169b:	e8 a8 02 00 00       	callq  1948 <read_six_numbers>
    16a0:	c7 45 f4 00 00 00 00 	movl   $0x0,-0xc(%rbp)
    16a7:	eb 54                	jmp    16fd <phase_6+0x87>
    16a9:	8b 45 f4             	mov    -0xc(%rbp),%eax
    16ac:	48 98                	cltq   
    16ae:	8b 44 85 d0          	mov    -0x30(%rbp,%rax,4),%eax
    16b2:	85 c0                	test   %eax,%eax
    16b4:	7e 0e                	jle    16c4 <phase_6+0x4e>
    16b6:	8b 45 f4             	mov    -0xc(%rbp),%eax
    16b9:	48 98                	cltq   
    16bb:	8b 44 85 d0          	mov    -0x30(%rbp,%rax,4),%eax
    16bf:	83 f8 06             	cmp    $0x6,%eax
    16c2:	7e 05                	jle    16c9 <phase_6+0x53>
    16c4:	e8 f4 05 00 00       	callq  1cbd <explode_bomb>
    16c9:	8b 45 f4             	mov    -0xc(%rbp),%eax
    16cc:	83 c0 01             	add    $0x1,%eax
    16cf:	89 45 f0             	mov    %eax,-0x10(%rbp)
    16d2:	eb 1f                	jmp    16f3 <phase_6+0x7d>
    16d4:	8b 45 f4             	mov    -0xc(%rbp),%eax
    16d7:	48 98                	cltq   
    16d9:	8b 54 85 d0          	mov    -0x30(%rbp,%rax,4),%edx
    16dd:	8b 45 f0             	mov    -0x10(%rbp),%eax
    16e0:	48 98                	cltq   
    16e2:	8b 44 85 d0          	mov    -0x30(%rbp,%rax,4),%eax
    16e6:	39 c2                	cmp    %eax,%edx
    16e8:	75 05                	jne    16ef <phase_6+0x79>
    16ea:	e8 ce 05 00 00       	callq  1cbd <explode_bomb>
    16ef:	83 45 f0 01          	addl   $0x1,-0x10(%rbp)
    16f3:	83 7d f0 05          	cmpl   $0x5,-0x10(%rbp)
    16f7:	7e db                	jle    16d4 <phase_6+0x5e>
    16f9:	83 45 f4 01          	addl   $0x1,-0xc(%rbp)
    16fd:	83 7d f4 05          	cmpl   $0x5,-0xc(%rbp)
    1701:	7e a6                	jle    16a9 <phase_6+0x33>
    1703:	c7 45 f4 00 00 00 00 	movl   $0x0,-0xc(%rbp)
    170a:	eb 41                	jmp    174d <phase_6+0xd7>
    170c:	48 8b 45 e8          	mov    -0x18(%rbp),%rax
    1710:	48 89 45 f8          	mov    %rax,-0x8(%rbp)
    1714:	c7 45 f0 01 00 00 00 	movl   $0x1,-0x10(%rbp)
    171b:	eb 10                	jmp    172d <phase_6+0xb7>
    171d:	48 8b 45 f8          	mov    -0x8(%rbp),%rax
    1721:	48 8b 40 08          	mov    0x8(%rax),%rax
    1725:	48 89 45 f8          	mov    %rax,-0x8(%rbp)
    1729:	83 45 f0 01          	addl   $0x1,-0x10(%rbp)
    172d:	8b 45 f4             	mov    -0xc(%rbp),%eax
    1730:	48 98                	cltq   
    1732:	8b 44 85 d0          	mov    -0x30(%rbp,%rax,4),%eax
    1736:	3b 45 f0             	cmp    -0x10(%rbp),%eax
    1739:	7f e2                	jg     171d <phase_6+0xa7>
    173b:	8b 45 f4             	mov    -0xc(%rbp),%eax
    173e:	48 98                	cltq   
    1740:	48 8b 55 f8          	mov    -0x8(%rbp),%rdx
    1744:	48 89 54 c5 a0       	mov    %rdx,-0x60(%rbp,%rax,8)
    1749:	83 45 f4 01          	addl   $0x1,-0xc(%rbp)
    174d:	83 7d f4 05          	cmpl   $0x5,-0xc(%rbp)
    1751:	7e b9                	jle    170c <phase_6+0x96>
    1753:	48 8b 45 a0          	mov    -0x60(%rbp),%rax
    1757:	48 89 45 e8          	mov    %rax,-0x18(%rbp)
    175b:	48 8b 45 e8          	mov    -0x18(%rbp),%rax
    175f:	48 89 45 f8          	mov    %rax,-0x8(%rbp)
    1763:	c7 45 f4 01 00 00 00 	movl   $0x1,-0xc(%rbp)
    176a:	eb 22                	jmp    178e <phase_6+0x118>
    176c:	8b 45 f4             	mov    -0xc(%rbp),%eax
    176f:	48 98                	cltq   
    1771:	48 8b 54 c5 a0       	mov    -0x60(%rbp,%rax,8),%rdx
    1776:	48 8b 45 f8          	mov    -0x8(%rbp),%rax
    177a:	48 89 50 08          	mov    %rdx,0x8(%rax)
    177e:	48 8b 45 f8          	mov    -0x8(%rbp),%rax
    1782:	48 8b 40 08          	mov    0x8(%rax),%rax
    1786:	48 89 45 f8          	mov    %rax,-0x8(%rbp)
    178a:	83 45 f4 01          	addl   $0x1,-0xc(%rbp)
    178e:	83 7d f4 05          	cmpl   $0x5,-0xc(%rbp)
    1792:	7e d8                	jle    176c <phase_6+0xf6>
    1794:	48 8b 45 f8          	mov    -0x8(%rbp),%rax
    1798:	48 c7 40 08 00 00 00 	movq   $0x0,0x8(%rax)
    179f:	00 
    17a0:	48 8b 45 e8          	mov    -0x18(%rbp),%rax
    17a4:	48 89 45 f8          	mov    %rax,-0x8(%rbp)
    17a8:	c7 45 f4 00 00 00 00 	movl   $0x0,-0xc(%rbp)
    17af:	eb 29                	jmp    17da <phase_6+0x164>
    17b1:	48 8b 45 f8          	mov    -0x8(%rbp),%rax
    17b5:	8b 10                	mov    (%rax),%edx
    17b7:	48 8b 45 f8          	mov    -0x8(%rbp),%rax
    17bb:	48 8b 40 08          	mov    0x8(%rax),%rax
    17bf:	8b 00                	mov    (%rax),%eax
    17c1:	39 c2                	cmp    %eax,%edx
    17c3:	7d 05                	jge    17ca <phase_6+0x154>
    17c5:	e8 f3 04 00 00       	callq  1cbd <explode_bomb>
    17ca:	48 8b 45 f8          	mov    -0x8(%rbp),%rax
    17ce:	48 8b 40 08          	mov    0x8(%rax),%rax
    17d2:	48 89 45 f8          	mov    %rax,-0x8(%rbp)
    17d6:	83 45 f4 01          	addl   $0x1,-0xc(%rbp)
    17da:	83 7d f4 04          	cmpl   $0x4,-0xc(%rbp)
    17de:	7e d1                	jle    17b1 <phase_6+0x13b>
    17e0:	90                   	nop
    17e1:	c9                   	leaveq 
    17e2:	c3                   	retq   

00000000000017e3 <fun7>:
    17e3:	55                   	push   %rbp
    17e4:	48 89 e5             	mov    %rsp,%rbp
    17e7:	48 83 ec 10          	sub    $0x10,%rsp
    17eb:	48 89 7d f8          	mov    %rdi,-0x8(%rbp)
    17ef:	89 75 f4             	mov    %esi,-0xc(%rbp)
    17f2:	48 83 7d f8 00       	cmpq   $0x0,-0x8(%rbp)
    17f7:	75 07                	jne    1800 <fun7+0x1d>
    17f9:	b8 ff ff ff ff       	mov    $0xffffffff,%eax
    17fe:	eb 50                	jmp    1850 <fun7+0x6d>
    1800:	48 8b 45 f8          	mov    -0x8(%rbp),%rax
    1804:	8b 00                	mov    (%rax),%eax
    1806:	3b 45 f4             	cmp    -0xc(%rbp),%eax
    1809:	7e 19                	jle    1824 <fun7+0x41>
    180b:	48 8b 45 f8          	mov    -0x8(%rbp),%rax
    180f:	48 8b 40 08          	mov    0x8(%rax),%rax
    1813:	8b 55 f4             	mov    -0xc(%rbp),%edx
    1816:	89 d6                	mov    %edx,%esi
    1818:	48 89 c7             	mov    %rax,%rdi
    181b:	e8 c3 ff ff ff       	callq  17e3 <fun7>
    1820:	01 c0                	add    %eax,%eax
    1822:	eb 2c                	jmp    1850 <fun7+0x6d>
    1824:	48 8b 45 f8          	mov    -0x8(%rbp),%rax
    1828:	8b 00                	mov    (%rax),%eax
    182a:	3b 45 f4             	cmp    -0xc(%rbp),%eax
    182d:	75 07                	jne    1836 <fun7+0x53>
    182f:	b8 00 00 00 00       	mov    $0x0,%eax
    1834:	eb 1a                	jmp    1850 <fun7+0x6d>
    1836:	48 8b 45 f8          	mov    -0x8(%rbp),%rax
    183a:	48 8b 40 10          	mov    0x10(%rax),%rax
    183e:	8b 55 f4             	mov    -0xc(%rbp),%edx
    1841:	89 d6                	mov    %edx,%esi
    1843:	48 89 c7             	mov    %rax,%rdi
    1846:	e8 98 ff ff ff       	callq  17e3 <fun7>
    184b:	01 c0                	add    %eax,%eax
    184d:	83 c0 01             	add    $0x1,%eax
    1850:	c9                   	leaveq 
    1851:	c3                   	retq   

0000000000001852 <secret_phase>:
    1852:	55                   	push   %rbp
    1853:	48 89 e5             	mov    %rsp,%rbp
    1856:	48 83 ec 10          	sub    $0x10,%rsp
    185a:	e8 df 02 00 00       	callq  1b3e <read_line>
    185f:	48 89 45 f8          	mov    %rax,-0x8(%rbp)
    1863:	48 8b 45 f8          	mov    -0x8(%rbp),%rax
    1867:	48 89 c7             	mov    %rax,%rdi
    186a:	e8 d1 f7 ff ff       	callq  1040 <atoi@plt>
    186f:	89 45 f4             	mov    %eax,-0xc(%rbp)
    1872:	83 7d f4 00          	cmpl   $0x0,-0xc(%rbp)
    1876:	7e 09                	jle    1881 <secret_phase+0x2f>
    1878:	81 7d f4 e9 03 00 00 	cmpl   $0x3e9,-0xc(%rbp)
    187f:	7e 05                	jle    1886 <secret_phase+0x34>
    1881:	e8 37 04 00 00       	callq  1cbd <explode_bomb>
    1886:	8b 45 f4             	mov    -0xc(%rbp),%eax
    1889:	89 c6                	mov    %eax,%esi
    188b:	48 8d 3d be 2a 20 00 	lea    0x202abe(%rip),%rdi        # 204350 <n1>
    1892:	e8 4c ff ff ff       	callq  17e3 <fun7>
    1897:	89 45 f0             	mov    %eax,-0x10(%rbp)
    189a:	83 7d f0 03          	cmpl   $0x3,-0x10(%rbp)
    189e:	74 05                	je     18a5 <secret_phase+0x53>
    18a0:	e8 18 04 00 00       	callq  1cbd <explode_bomb>
    18a5:	48 8d 3d 04 15 00 00 	lea    0x1504(%rip),%rdi        # 2db0 <_IO_stdin_used+0x1b0>
    18ac:	e8 5f f6 ff ff       	callq  f10 <puts@plt>
    18b1:	e8 2d 04 00 00       	callq  1ce3 <phase_defused>
    18b6:	90                   	nop
    18b7:	c9                   	leaveq 
    18b8:	c3                   	retq   

00000000000018b9 <sig_handler>:
    18b9:	55                   	push   %rbp
    18ba:	48 89 e5             	mov    %rsp,%rbp
    18bd:	48 83 ec 10          	sub    $0x10,%rsp
    18c1:	89 7d fc             	mov    %edi,-0x4(%rbp)
    18c4:	48 8d 3d 6d 15 00 00 	lea    0x156d(%rip),%rdi        # 2e38 <_IO_stdin_used+0x238>
    18cb:	e8 40 f6 ff ff       	callq  f10 <puts@plt>
    18d0:	bf 03 00 00 00       	mov    $0x3,%edi
    18d5:	e8 a6 f7 ff ff       	callq  1080 <sleep@plt>
    18da:	48 8d 3d 8f 15 00 00 	lea    0x158f(%rip),%rdi        # 2e70 <_IO_stdin_used+0x270>
    18e1:	b8 00 00 00 00       	mov    $0x0,%eax
    18e6:	e8 65 f6 ff ff       	callq  f50 <printf@plt>
    18eb:	48 8b 05 8e 2e 20 00 	mov    0x202e8e(%rip),%rax        # 204780 <stdout@@GLIBC_2.2.5>
    18f2:	48 89 c7             	mov    %rax,%rdi
    18f5:	e8 f6 f6 ff ff       	callq  ff0 <fflush@plt>
    18fa:	bf 01 00 00 00       	mov    $0x1,%edi
    18ff:	e8 7c f7 ff ff       	callq  1080 <sleep@plt>
    1904:	48 8d 3d 6d 15 00 00 	lea    0x156d(%rip),%rdi        # 2e78 <_IO_stdin_used+0x278>
    190b:	e8 00 f6 ff ff       	callq  f10 <puts@plt>
    1910:	bf 10 00 00 00       	mov    $0x10,%edi
    1915:	e8 46 f7 ff ff       	callq  1060 <exit@plt>

000000000000191a <invalid_phase>:
    191a:	55                   	push   %rbp
    191b:	48 89 e5             	mov    %rsp,%rbp
    191e:	48 83 ec 10          	sub    $0x10,%rsp
    1922:	48 89 7d f8          	mov    %rdi,-0x8(%rbp)
    1926:	48 8b 45 f8          	mov    -0x8(%rbp),%rax
    192a:	48 89 c6             	mov    %rax,%rsi
    192d:	48 8d 3d 4c 15 00 00 	lea    0x154c(%rip),%rdi        # 2e80 <_IO_stdin_used+0x280>
    1934:	b8 00 00 00 00       	mov    $0x0,%eax
    1939:	e8 12 f6 ff ff       	callq  f50 <printf@plt>
    193e:	bf 08 00 00 00       	mov    $0x8,%edi
    1943:	e8 18 f7 ff ff       	callq  1060 <exit@plt>

0000000000001948 <read_six_numbers>:
    1948:	55                   	push   %rbp
    1949:	48 89 e5             	mov    %rsp,%rbp
    194c:	48 83 ec 20          	sub    $0x20,%rsp
    1950:	48 89 7d e8          	mov    %rdi,-0x18(%rbp)
    1954:	48 89 75 e0          	mov    %rsi,-0x20(%rbp)
    1958:	48 8b 45 e0          	mov    -0x20(%rbp),%rax
    195c:	48 8d 78 14          	lea    0x14(%rax),%rdi
    1960:	48 8b 45 e0          	mov    -0x20(%rbp),%rax
    1964:	48 8d 70 10          	lea    0x10(%rax),%rsi
    1968:	48 8b 45 e0          	mov    -0x20(%rbp),%rax
    196c:	4c 8d 48 0c          	lea    0xc(%rax),%r9
    1970:	48 8b 45 e0          	mov    -0x20(%rbp),%rax
    1974:	4c 8d 40 08          	lea    0x8(%rax),%r8
    1978:	48 8b 45 e0          	mov    -0x20(%rbp),%rax
    197c:	48 8d 48 04          	lea    0x4(%rax),%rcx
    1980:	48 8b 55 e0          	mov    -0x20(%rbp),%rdx
    1984:	48 8b 45 e8          	mov    -0x18(%rbp),%rax
    1988:	57                   	push   %rdi
    1989:	56                   	push   %rsi
    198a:	48 8d 35 00 15 00 00 	lea    0x1500(%rip),%rsi        # 2e91 <_IO_stdin_used+0x291>
    1991:	48 89 c7             	mov    %rax,%rdi
    1994:	b8 00 00 00 00       	mov    $0x0,%eax
    1999:	e8 62 f6 ff ff       	callq  1000 <__isoc99_sscanf@plt>
    199e:	48 83 c4 10          	add    $0x10,%rsp
    19a2:	89 45 fc             	mov    %eax,-0x4(%rbp)
    19a5:	83 7d fc 05          	cmpl   $0x5,-0x4(%rbp)
    19a9:	7f 05                	jg     19b0 <read_six_numbers+0x68>
    19ab:	e8 0d 03 00 00       	callq  1cbd <explode_bomb>
    19b0:	90                   	nop
    19b1:	c9                   	leaveq 
    19b2:	c3                   	retq   

00000000000019b3 <string_length>:
    19b3:	55                   	push   %rbp
    19b4:	48 89 e5             	mov    %rsp,%rbp
    19b7:	48 89 7d e8          	mov    %rdi,-0x18(%rbp)
    19bb:	48 8b 45 e8          	mov    -0x18(%rbp),%rax
    19bf:	48 89 45 f0          	mov    %rax,-0x10(%rbp)
    19c3:	c7 45 fc 00 00 00 00 	movl   $0x0,-0x4(%rbp)
    19ca:	eb 09                	jmp    19d5 <string_length+0x22>
    19cc:	48 83 45 f0 01       	addq   $0x1,-0x10(%rbp)
    19d1:	83 45 fc 01          	addl   $0x1,-0x4(%rbp)
    19d5:	48 8b 45 f0          	mov    -0x10(%rbp),%rax
    19d9:	0f b6 00             	movzbl (%rax),%eax
    19dc:	84 c0                	test   %al,%al
    19de:	75 ec                	jne    19cc <string_length+0x19>
    19e0:	8b 45 fc             	mov    -0x4(%rbp),%eax
    19e3:	5d                   	pop    %rbp
    19e4:	c3                   	retq   

00000000000019e5 <strings_not_equal>:
    19e5:	55                   	push   %rbp
    19e6:	48 89 e5             	mov    %rsp,%rbp
    19e9:	53                   	push   %rbx
    19ea:	48 83 ec 20          	sub    $0x20,%rsp
    19ee:	48 89 7d e0          	mov    %rdi,-0x20(%rbp)
    19f2:	48 89 75 d8          	mov    %rsi,-0x28(%rbp)
    19f6:	48 8b 45 e0          	mov    -0x20(%rbp),%rax
    19fa:	48 89 c7             	mov    %rax,%rdi
    19fd:	e8 b1 ff ff ff       	callq  19b3 <string_length>
    1a02:	89 c3                	mov    %eax,%ebx
    1a04:	48 8b 45 d8          	mov    -0x28(%rbp),%rax
    1a08:	48 89 c7             	mov    %rax,%rdi
    1a0b:	e8 a3 ff ff ff       	callq  19b3 <string_length>
    1a10:	39 c3                	cmp    %eax,%ebx
    1a12:	74 07                	je     1a1b <strings_not_equal+0x36>
    1a14:	b8 01 00 00 00       	mov    $0x1,%eax
    1a19:	eb 45                	jmp    1a60 <strings_not_equal+0x7b>
    1a1b:	48 8b 45 e0          	mov    -0x20(%rbp),%rax
    1a1f:	48 89 45 f0          	mov    %rax,-0x10(%rbp)
    1a23:	48 8b 45 d8          	mov    -0x28(%rbp),%rax
    1a27:	48 89 45 e8          	mov    %rax,-0x18(%rbp)
    1a2b:	eb 23                	jmp    1a50 <strings_not_equal+0x6b>
    1a2d:	48 8b 45 f0          	mov    -0x10(%rbp),%rax
    1a31:	0f b6 10             	movzbl (%rax),%edx
    1a34:	48 8b 45 e8          	mov    -0x18(%rbp),%rax
    1a38:	0f b6 00             	movzbl (%rax),%eax
    1a3b:	38 c2                	cmp    %al,%dl
    1a3d:	74 07                	je     1a46 <strings_not_equal+0x61>
    1a3f:	b8 01 00 00 00       	mov    $0x1,%eax
    1a44:	eb 1a                	jmp    1a60 <strings_not_equal+0x7b>
    1a46:	48 83 45 f0 01       	addq   $0x1,-0x10(%rbp)
    1a4b:	48 83 45 e8 01       	addq   $0x1,-0x18(%rbp)
    1a50:	48 8b 45 f0          	mov    -0x10(%rbp),%rax
    1a54:	0f b6 00             	movzbl (%rax),%eax
    1a57:	84 c0                	test   %al,%al
    1a59:	75 d2                	jne    1a2d <strings_not_equal+0x48>
    1a5b:	b8 00 00 00 00       	mov    $0x0,%eax
    1a60:	48 83 c4 20          	add    $0x20,%rsp
    1a64:	5b                   	pop    %rbx
    1a65:	5d                   	pop    %rbp
    1a66:	c3                   	retq   

0000000000001a67 <initialize_bomb>:
    1a67:	55                   	push   %rbp
    1a68:	48 89 e5             	mov    %rsp,%rbp
    1a6b:	48 8d 35 47 fe ff ff 	lea    -0x1b9(%rip),%rsi        # 18b9 <sig_handler>
    1a72:	bf 02 00 00 00       	mov    $0x2,%edi
    1a77:	e8 34 f5 ff ff       	callq  fb0 <signal@plt>
    1a7c:	90                   	nop
    1a7d:	5d                   	pop    %rbp
    1a7e:	c3                   	retq   

0000000000001a7f <initialize_bomb_solve>:
    1a7f:	55                   	push   %rbp
    1a80:	48 89 e5             	mov    %rsp,%rbp
    1a83:	90                   	nop
    1a84:	5d                   	pop    %rbp
    1a85:	c3                   	retq   

0000000000001a86 <blank_line>:
    1a86:	55                   	push   %rbp
    1a87:	48 89 e5             	mov    %rsp,%rbp
    1a8a:	48 83 ec 10          	sub    $0x10,%rsp
    1a8e:	48 89 7d f8          	mov    %rdi,-0x8(%rbp)
    1a92:	eb 37                	jmp    1acb <blank_line+0x45>
    1a94:	e8 f7 f5 ff ff       	callq  1090 <__ctype_b_loc@plt>
    1a99:	48 8b 08             	mov    (%rax),%rcx
    1a9c:	48 8b 45 f8          	mov    -0x8(%rbp),%rax
    1aa0:	48 8d 50 01          	lea    0x1(%rax),%rdx
    1aa4:	48 89 55 f8          	mov    %rdx,-0x8(%rbp)
    1aa8:	0f b6 00             	movzbl (%rax),%eax
    1aab:	48 0f be c0          	movsbq %al,%rax
    1aaf:	48 01 c0             	add    %rax,%rax
    1ab2:	48 01 c8             	add    %rcx,%rax
    1ab5:	0f b7 00             	movzwl (%rax),%eax
    1ab8:	0f b7 c0             	movzwl %ax,%eax
    1abb:	25 00 20 00 00       	and    $0x2000,%eax
    1ac0:	85 c0                	test   %eax,%eax
    1ac2:	75 07                	jne    1acb <blank_line+0x45>
    1ac4:	b8 00 00 00 00       	mov    $0x0,%eax
    1ac9:	eb 10                	jmp    1adb <blank_line+0x55>
    1acb:	48 8b 45 f8          	mov    -0x8(%rbp),%rax
    1acf:	0f b6 00             	movzbl (%rax),%eax
    1ad2:	84 c0                	test   %al,%al
    1ad4:	75 be                	jne    1a94 <blank_line+0xe>
    1ad6:	b8 01 00 00 00       	mov    $0x1,%eax
    1adb:	c9                   	leaveq 
    1adc:	c3                   	retq   

0000000000001add <skip>:
    1add:	55                   	push   %rbp
    1ade:	48 89 e5             	mov    %rsp,%rbp
    1ae1:	48 83 ec 10          	sub    $0x10,%rsp
    1ae5:	48 8b 0d c4 2c 20 00 	mov    0x202cc4(%rip),%rcx        # 2047b0 <infile>
    1aec:	8b 05 ba 2c 20 00    	mov    0x202cba(%rip),%eax        # 2047ac <num_input_strings>
    1af2:	48 63 d0             	movslq %eax,%rdx
    1af5:	48 89 d0             	mov    %rdx,%rax
    1af8:	48 c1 e0 02          	shl    $0x2,%rax
    1afc:	48 01 d0             	add    %rdx,%rax
    1aff:	48 c1 e0 04          	shl    $0x4,%rax
    1b03:	48 8d 15 b6 2c 20 00 	lea    0x202cb6(%rip),%rdx        # 2047c0 <input_strings>
    1b0a:	48 01 d0             	add    %rdx,%rax
    1b0d:	48 89 ca             	mov    %rcx,%rdx
    1b10:	be 50 00 00 00       	mov    $0x50,%esi
    1b15:	48 89 c7             	mov    %rax,%rdi
    1b18:	e8 73 f4 ff ff       	callq  f90 <fgets@plt>
    1b1d:	48 89 45 f8          	mov    %rax,-0x8(%rbp)
    1b21:	48 83 7d f8 00       	cmpq   $0x0,-0x8(%rbp)
    1b26:	74 10                	je     1b38 <skip+0x5b>
    1b28:	48 8b 45 f8          	mov    -0x8(%rbp),%rax
    1b2c:	48 89 c7             	mov    %rax,%rdi
    1b2f:	e8 52 ff ff ff       	callq  1a86 <blank_line>
    1b34:	85 c0                	test   %eax,%eax
    1b36:	75 ad                	jne    1ae5 <skip+0x8>
    1b38:	48 8b 45 f8          	mov    -0x8(%rbp),%rax
    1b3c:	c9                   	leaveq 
    1b3d:	c3                   	retq   

0000000000001b3e <read_line>:
    1b3e:	55                   	push   %rbp
    1b3f:	48 89 e5             	mov    %rsp,%rbp
    1b42:	48 83 ec 10          	sub    $0x10,%rsp
    1b46:	b8 00 00 00 00       	mov    $0x0,%eax
    1b4b:	e8 8d ff ff ff       	callq  1add <skip>
    1b50:	48 89 45 f8          	mov    %rax,-0x8(%rbp)
    1b54:	48 83 7d f8 00       	cmpq   $0x0,-0x8(%rbp)
    1b59:	75 7d                	jne    1bd8 <read_line+0x9a>
    1b5b:	48 8b 15 4e 2c 20 00 	mov    0x202c4e(%rip),%rdx        # 2047b0 <infile>
    1b62:	48 8b 05 27 2c 20 00 	mov    0x202c27(%rip),%rax        # 204790 <stdin@@GLIBC_2.2.5>
    1b69:	48 39 c2             	cmp    %rax,%rdx
    1b6c:	75 16                	jne    1b84 <read_line+0x46>
    1b6e:	48 8d 3d 2e 13 00 00 	lea    0x132e(%rip),%rdi        # 2ea3 <_IO_stdin_used+0x2a3>
    1b75:	e8 96 f3 ff ff       	callq  f10 <puts@plt>
    1b7a:	bf 08 00 00 00       	mov    $0x8,%edi
    1b7f:	e8 dc f4 ff ff       	callq  1060 <exit@plt>
    1b84:	48 8d 3d 36 13 00 00 	lea    0x1336(%rip),%rdi        # 2ec1 <_IO_stdin_used+0x2c1>
    1b8b:	e8 50 f3 ff ff       	callq  ee0 <getenv@plt>
    1b90:	48 85 c0             	test   %rax,%rax
    1b93:	74 0a                	je     1b9f <read_line+0x61>
    1b95:	bf 00 00 00 00       	mov    $0x0,%edi
    1b9a:	e8 c1 f4 ff ff       	callq  1060 <exit@plt>
    1b9f:	48 8b 05 ea 2b 20 00 	mov    0x202bea(%rip),%rax        # 204790 <stdin@@GLIBC_2.2.5>
    1ba6:	48 89 05 03 2c 20 00 	mov    %rax,0x202c03(%rip)        # 2047b0 <infile>
    1bad:	b8 00 00 00 00       	mov    $0x0,%eax
    1bb2:	e8 26 ff ff ff       	callq  1add <skip>
    1bb7:	48 89 45 f8          	mov    %rax,-0x8(%rbp)
    1bbb:	48 83 7d f8 00       	cmpq   $0x0,-0x8(%rbp)
    1bc0:	75 16                	jne    1bd8 <read_line+0x9a>
    1bc2:	48 8d 3d da 12 00 00 	lea    0x12da(%rip),%rdi        # 2ea3 <_IO_stdin_used+0x2a3>
    1bc9:	e8 42 f3 ff ff       	callq  f10 <puts@plt>
    1bce:	bf 00 00 00 00       	mov    $0x0,%edi
    1bd3:	e8 88 f4 ff ff       	callq  1060 <exit@plt>
    1bd8:	8b 05 ce 2b 20 00    	mov    0x202bce(%rip),%eax        # 2047ac <num_input_strings>
    1bde:	48 63 d0             	movslq %eax,%rdx
    1be1:	48 89 d0             	mov    %rdx,%rax
    1be4:	48 c1 e0 02          	shl    $0x2,%rax
    1be8:	48 01 d0             	add    %rdx,%rax
    1beb:	48 c1 e0 04          	shl    $0x4,%rax
    1bef:	48 8d 15 ca 2b 20 00 	lea    0x202bca(%rip),%rdx        # 2047c0 <input_strings>
    1bf6:	48 01 d0             	add    %rdx,%rax
    1bf9:	48 89 c7             	mov    %rax,%rdi
    1bfc:	e8 2f f3 ff ff       	callq  f30 <strlen@plt>
    1c01:	89 45 f4             	mov    %eax,-0xc(%rbp)
    1c04:	83 7d f4 4e          	cmpl   $0x4e,-0xc(%rbp)
    1c08:	7e 56                	jle    1c60 <read_line+0x122>
    1c0a:	48 8d 3d bb 12 00 00 	lea    0x12bb(%rip),%rdi        # 2ecc <_IO_stdin_used+0x2cc>
    1c11:	e8 fa f2 ff ff       	callq  f10 <puts@plt>
    1c16:	8b 05 90 2b 20 00    	mov    0x202b90(%rip),%eax        # 2047ac <num_input_strings>
    1c1c:	8d 50 01             	lea    0x1(%rax),%edx
    1c1f:	89 15 87 2b 20 00    	mov    %edx,0x202b87(%rip)        # 2047ac <num_input_strings>
    1c25:	48 63 d0             	movslq %eax,%rdx
    1c28:	48 89 d0             	mov    %rdx,%rax
    1c2b:	48 c1 e0 02          	shl    $0x2,%rax
    1c2f:	48 01 d0             	add    %rdx,%rax
    1c32:	48 c1 e0 04          	shl    $0x4,%rax
    1c36:	48 8d 15 83 2b 20 00 	lea    0x202b83(%rip),%rdx        # 2047c0 <input_strings>
    1c3d:	48 01 d0             	add    %rdx,%rax
    1c40:	48 be 2a 2a 2a 74 72 	movabs $0x636e7572742a2a2a,%rsi
    1c47:	75 6e 63 
    1c4a:	48 89 30             	mov    %rsi,(%rax)
    1c4d:	48 b9 61 74 65 64 2a 	movabs $0x2a2a2a64657461,%rcx
    1c54:	2a 2a 00 
    1c57:	48 89 48 08          	mov    %rcx,0x8(%rax)
    1c5b:	e8 5d 00 00 00       	callq  1cbd <explode_bomb>
    1c60:	8b 05 46 2b 20 00    	mov    0x202b46(%rip),%eax        # 2047ac <num_input_strings>
    1c66:	8b 55 f4             	mov    -0xc(%rbp),%edx
    1c69:	83 ea 01             	sub    $0x1,%edx
    1c6c:	48 63 ca             	movslq %edx,%rcx
    1c6f:	48 63 d0             	movslq %eax,%rdx
    1c72:	48 89 d0             	mov    %rdx,%rax
    1c75:	48 c1 e0 02          	shl    $0x2,%rax
    1c79:	48 01 d0             	add    %rdx,%rax
    1c7c:	48 c1 e0 04          	shl    $0x4,%rax
    1c80:	48 8d 14 08          	lea    (%rax,%rcx,1),%rdx
    1c84:	48 8d 05 35 2b 20 00 	lea    0x202b35(%rip),%rax        # 2047c0 <input_strings>
    1c8b:	48 01 d0             	add    %rdx,%rax
    1c8e:	c6 00 00             	movb   $0x0,(%rax)
    1c91:	8b 05 15 2b 20 00    	mov    0x202b15(%rip),%eax        # 2047ac <num_input_strings>
    1c97:	8d 50 01             	lea    0x1(%rax),%edx
    1c9a:	89 15 0c 2b 20 00    	mov    %edx,0x202b0c(%rip)        # 2047ac <num_input_strings>
    1ca0:	48 63 d0             	movslq %eax,%rdx
    1ca3:	48 89 d0             	mov    %rdx,%rax
    1ca6:	48 c1 e0 02          	shl    $0x2,%rax
    1caa:	48 01 d0             	add    %rdx,%rax
    1cad:	48 c1 e0 04          	shl    $0x4,%rax
    1cb1:	48 8d 15 08 2b 20 00 	lea    0x202b08(%rip),%rdx        # 2047c0 <input_strings>
    1cb8:	48 01 d0             	add    %rdx,%rax
    1cbb:	c9                   	leaveq 
    1cbc:	c3                   	retq   

0000000000001cbd <explode_bomb>:
    1cbd:	55                   	push   %rbp
    1cbe:	48 89 e5             	mov    %rsp,%rbp
    1cc1:	48 8d 3d 1f 12 00 00 	lea    0x121f(%rip),%rdi        # 2ee7 <_IO_stdin_used+0x2e7>
    1cc8:	e8 43 f2 ff ff       	callq  f10 <puts@plt>
    1ccd:	48 8d 3d 1c 12 00 00 	lea    0x121c(%rip),%rdi        # 2ef0 <_IO_stdin_used+0x2f0>
    1cd4:	e8 37 f2 ff ff       	callq  f10 <puts@plt>
    1cd9:	bf 08 00 00 00       	mov    $0x8,%edi
    1cde:	e8 7d f3 ff ff       	callq  1060 <exit@plt>

0000000000001ce3 <phase_defused>:
    1ce3:	55                   	push   %rbp
    1ce4:	48 89 e5             	mov    %rsp,%rbp
    1ce7:	48 83 ec 70          	sub    $0x70,%rsp
    1ceb:	8b 05 bb 2a 20 00    	mov    0x202abb(%rip),%eax        # 2047ac <num_input_strings>
    1cf1:	83 f8 06             	cmp    $0x6,%eax
    1cf4:	75 7b                	jne    1d71 <phase_defused+0x8e>
    1cf6:	48 8d 4d a0          	lea    -0x60(%rbp),%rcx
    1cfa:	48 8d 55 98          	lea    -0x68(%rbp),%rdx
    1cfe:	48 8d 45 9c          	lea    -0x64(%rbp),%rax
    1d02:	49 89 c8             	mov    %rcx,%r8
    1d05:	48 89 d1             	mov    %rdx,%rcx
    1d08:	48 89 c2             	mov    %rax,%rdx
    1d0b:	48 8d 35 f5 11 00 00 	lea    0x11f5(%rip),%rsi        # 2f07 <_IO_stdin_used+0x307>
    1d12:	48 8d 3d 97 2b 20 00 	lea    0x202b97(%rip),%rdi        # 2048b0 <input_strings+0xf0>
    1d19:	b8 00 00 00 00       	mov    $0x0,%eax
    1d1e:	e8 dd f2 ff ff       	callq  1000 <__isoc99_sscanf@plt>
    1d23:	89 45 fc             	mov    %eax,-0x4(%rbp)
    1d26:	83 7d fc 03          	cmpl   $0x3,-0x4(%rbp)
    1d2a:	75 39                	jne    1d65 <phase_defused+0x82>
    1d2c:	48 8d 45 a0          	lea    -0x60(%rbp),%rax
    1d30:	48 8d 35 d9 11 00 00 	lea    0x11d9(%rip),%rsi        # 2f10 <_IO_stdin_used+0x310>
    1d37:	48 89 c7             	mov    %rax,%rdi
    1d3a:	e8 a6 fc ff ff       	callq  19e5 <strings_not_equal>
    1d3f:	85 c0                	test   %eax,%eax
    1d41:	75 22                	jne    1d65 <phase_defused+0x82>
    1d43:	48 8d 3d ce 11 00 00 	lea    0x11ce(%rip),%rdi        # 2f18 <_IO_stdin_used+0x318>
    1d4a:	e8 c1 f1 ff ff       	callq  f10 <puts@plt>
    1d4f:	48 8d 3d ea 11 00 00 	lea    0x11ea(%rip),%rdi        # 2f40 <_IO_stdin_used+0x340>
    1d56:	e8 b5 f1 ff ff       	callq  f10 <puts@plt>
    1d5b:	b8 00 00 00 00       	mov    $0x0,%eax
    1d60:	e8 ed fa ff ff       	callq  1852 <secret_phase>
    1d65:	48 8d 3d 0c 12 00 00 	lea    0x120c(%rip),%rdi        # 2f78 <_IO_stdin_used+0x378>
    1d6c:	e8 9f f1 ff ff       	callq  f10 <puts@plt>
    1d71:	90                   	nop
    1d72:	c9                   	leaveq 
    1d73:	c3                   	retq   

0000000000001d74 <sigalrm_handler>:
    1d74:	55                   	push   %rbp
    1d75:	48 89 e5             	mov    %rsp,%rbp
    1d78:	48 83 ec 10          	sub    $0x10,%rsp
    1d7c:	89 7d fc             	mov    %edi,-0x4(%rbp)
    1d7f:	48 8b 05 1a 2a 20 00 	mov    0x202a1a(%rip),%rax        # 2047a0 <stderr@@GLIBC_2.2.5>
    1d86:	ba 00 00 00 00       	mov    $0x0,%edx
    1d8b:	48 8d 35 16 12 00 00 	lea    0x1216(%rip),%rsi        # 2fa8 <_IO_stdin_used+0x3a8>
    1d92:	48 89 c7             	mov    %rax,%rdi
    1d95:	b8 00 00 00 00       	mov    $0x0,%eax
    1d9a:	e8 31 f2 ff ff       	callq  fd0 <fprintf@plt>
    1d9f:	bf 01 00 00 00       	mov    $0x1,%edi
    1da4:	e8 b7 f2 ff ff       	callq  1060 <exit@plt>

0000000000001da9 <rio_readinitb>:
    1da9:	55                   	push   %rbp
    1daa:	48 89 e5             	mov    %rsp,%rbp
    1dad:	48 89 7d f8          	mov    %rdi,-0x8(%rbp)
    1db1:	89 75 f4             	mov    %esi,-0xc(%rbp)
    1db4:	48 8b 45 f8          	mov    -0x8(%rbp),%rax
    1db8:	8b 55 f4             	mov    -0xc(%rbp),%edx
    1dbb:	89 10                	mov    %edx,(%rax)
    1dbd:	48 8b 45 f8          	mov    -0x8(%rbp),%rax
    1dc1:	c7 40 04 00 00 00 00 	movl   $0x0,0x4(%rax)
    1dc8:	48 8b 45 f8          	mov    -0x8(%rbp),%rax
    1dcc:	48 8d 50 10          	lea    0x10(%rax),%rdx
    1dd0:	48 8b 45 f8          	mov    -0x8(%rbp),%rax
    1dd4:	48 89 50 08          	mov    %rdx,0x8(%rax)
    1dd8:	90                   	nop
    1dd9:	5d                   	pop    %rbp
    1dda:	c3                   	retq   

0000000000001ddb <rio_read>:
    1ddb:	55                   	push   %rbp
    1ddc:	48 89 e5             	mov    %rsp,%rbp
    1ddf:	48 83 ec 30          	sub    $0x30,%rsp
    1de3:	48 89 7d e8          	mov    %rdi,-0x18(%rbp)
    1de7:	48 89 75 e0          	mov    %rsi,-0x20(%rbp)
    1deb:	48 89 55 d8          	mov    %rdx,-0x28(%rbp)
    1def:	eb 6e                	jmp    1e5f <rio_read+0x84>
    1df1:	48 8b 45 e8          	mov    -0x18(%rbp),%rax
    1df5:	48 8d 48 10          	lea    0x10(%rax),%rcx
    1df9:	48 8b 45 e8          	mov    -0x18(%rbp),%rax
    1dfd:	8b 00                	mov    (%rax),%eax
    1dff:	ba 00 20 00 00       	mov    $0x2000,%edx
    1e04:	48 89 ce             	mov    %rcx,%rsi
    1e07:	89 c7                	mov    %eax,%edi
    1e09:	e8 72 f1 ff ff       	callq  f80 <read@plt>
    1e0e:	89 c2                	mov    %eax,%edx
    1e10:	48 8b 45 e8          	mov    -0x18(%rbp),%rax
    1e14:	89 50 04             	mov    %edx,0x4(%rax)
    1e17:	48 8b 45 e8          	mov    -0x18(%rbp),%rax
    1e1b:	8b 40 04             	mov    0x4(%rax),%eax
    1e1e:	85 c0                	test   %eax,%eax
    1e20:	79 18                	jns    1e3a <rio_read+0x5f>
    1e22:	e8 c9 f0 ff ff       	callq  ef0 <__errno_location@plt>
    1e27:	8b 00                	mov    (%rax),%eax
    1e29:	83 f8 04             	cmp    $0x4,%eax
    1e2c:	74 31                	je     1e5f <rio_read+0x84>
    1e2e:	48 c7 c0 ff ff ff ff 	mov    $0xffffffffffffffff,%rax
    1e35:	e9 9d 00 00 00       	jmpq   1ed7 <rio_read+0xfc>
    1e3a:	48 8b 45 e8          	mov    -0x18(%rbp),%rax
    1e3e:	8b 40 04             	mov    0x4(%rax),%eax
    1e41:	85 c0                	test   %eax,%eax
    1e43:	75 0a                	jne    1e4f <rio_read+0x74>
    1e45:	b8 00 00 00 00       	mov    $0x0,%eax
    1e4a:	e9 88 00 00 00       	jmpq   1ed7 <rio_read+0xfc>
    1e4f:	48 8b 45 e8          	mov    -0x18(%rbp),%rax
    1e53:	48 8d 50 10          	lea    0x10(%rax),%rdx
    1e57:	48 8b 45 e8          	mov    -0x18(%rbp),%rax
    1e5b:	48 89 50 08          	mov    %rdx,0x8(%rax)
    1e5f:	48 8b 45 e8          	mov    -0x18(%rbp),%rax
    1e63:	8b 40 04             	mov    0x4(%rax),%eax
    1e66:	85 c0                	test   %eax,%eax
    1e68:	7e 87                	jle    1df1 <rio_read+0x16>
    1e6a:	48 8b 45 d8          	mov    -0x28(%rbp),%rax
    1e6e:	89 45 fc             	mov    %eax,-0x4(%rbp)
    1e71:	48 8b 45 e8          	mov    -0x18(%rbp),%rax
    1e75:	8b 40 04             	mov    0x4(%rax),%eax
    1e78:	48 98                	cltq   
    1e7a:	48 3b 45 d8          	cmp    -0x28(%rbp),%rax
    1e7e:	73 0a                	jae    1e8a <rio_read+0xaf>
    1e80:	48 8b 45 e8          	mov    -0x18(%rbp),%rax
    1e84:	8b 40 04             	mov    0x4(%rax),%eax
    1e87:	89 45 fc             	mov    %eax,-0x4(%rbp)
    1e8a:	8b 45 fc             	mov    -0x4(%rbp),%eax
    1e8d:	48 63 d0             	movslq %eax,%rdx
    1e90:	48 8b 45 e8          	mov    -0x18(%rbp),%rax
    1e94:	48 8b 48 08          	mov    0x8(%rax),%rcx
    1e98:	48 8b 45 e0          	mov    -0x20(%rbp),%rax
    1e9c:	48 89 ce             	mov    %rcx,%rsi
    1e9f:	48 89 c7             	mov    %rax,%rdi
    1ea2:	e8 39 f1 ff ff       	callq  fe0 <memcpy@plt>
    1ea7:	48 8b 45 e8          	mov    -0x18(%rbp),%rax
    1eab:	48 8b 50 08          	mov    0x8(%rax),%rdx
    1eaf:	8b 45 fc             	mov    -0x4(%rbp),%eax
    1eb2:	48 98                	cltq   
    1eb4:	48 01 c2             	add    %rax,%rdx
    1eb7:	48 8b 45 e8          	mov    -0x18(%rbp),%rax
    1ebb:	48 89 50 08          	mov    %rdx,0x8(%rax)
    1ebf:	48 8b 45 e8          	mov    -0x18(%rbp),%rax
    1ec3:	8b 40 04             	mov    0x4(%rax),%eax
    1ec6:	2b 45 fc             	sub    -0x4(%rbp),%eax
    1ec9:	89 c2                	mov    %eax,%edx
    1ecb:	48 8b 45 e8          	mov    -0x18(%rbp),%rax
    1ecf:	89 50 04             	mov    %edx,0x4(%rax)
    1ed2:	8b 45 fc             	mov    -0x4(%rbp),%eax
    1ed5:	48 98                	cltq   
    1ed7:	c9                   	leaveq 
    1ed8:	c3                   	retq   

0000000000001ed9 <rio_readlineb>:
    1ed9:	55                   	push   %rbp
    1eda:	48 89 e5             	mov    %rsp,%rbp
    1edd:	48 83 ec 40          	sub    $0x40,%rsp
    1ee1:	48 89 7d d8          	mov    %rdi,-0x28(%rbp)
    1ee5:	48 89 75 d0          	mov    %rsi,-0x30(%rbp)
    1ee9:	48 89 55 c8          	mov    %rdx,-0x38(%rbp)
    1eed:	48 8b 45 d0          	mov    -0x30(%rbp),%rax
    1ef1:	48 89 45 f0          	mov    %rax,-0x10(%rbp)
    1ef5:	c7 45 fc 01 00 00 00 	movl   $0x1,-0x4(%rbp)
    1efc:	eb 5d                	jmp    1f5b <rio_readlineb+0x82>
    1efe:	48 8d 4d eb          	lea    -0x15(%rbp),%rcx
    1f02:	48 8b 45 d8          	mov    -0x28(%rbp),%rax
    1f06:	ba 01 00 00 00       	mov    $0x1,%edx
    1f0b:	48 89 ce             	mov    %rcx,%rsi
    1f0e:	48 89 c7             	mov    %rax,%rdi
    1f11:	e8 c5 fe ff ff       	callq  1ddb <rio_read>
    1f16:	89 45 ec             	mov    %eax,-0x14(%rbp)
    1f19:	83 7d ec 01          	cmpl   $0x1,-0x14(%rbp)
    1f1d:	75 1c                	jne    1f3b <rio_readlineb+0x62>
    1f1f:	48 8b 45 f0          	mov    -0x10(%rbp),%rax
    1f23:	48 8d 50 01          	lea    0x1(%rax),%rdx
    1f27:	48 89 55 f0          	mov    %rdx,-0x10(%rbp)
    1f2b:	0f b6 55 eb          	movzbl -0x15(%rbp),%edx
    1f2f:	88 10                	mov    %dl,(%rax)
    1f31:	0f b6 45 eb          	movzbl -0x15(%rbp),%eax
    1f35:	3c 0a                	cmp    $0xa,%al
    1f37:	75 1e                	jne    1f57 <rio_readlineb+0x7e>
    1f39:	eb 2e                	jmp    1f69 <rio_readlineb+0x90>
    1f3b:	83 7d ec 00          	cmpl   $0x0,-0x14(%rbp)
    1f3f:	75 0d                	jne    1f4e <rio_readlineb+0x75>
    1f41:	83 7d fc 01          	cmpl   $0x1,-0x4(%rbp)
    1f45:	75 21                	jne    1f68 <rio_readlineb+0x8f>
    1f47:	b8 00 00 00 00       	mov    $0x0,%eax
    1f4c:	eb 27                	jmp    1f75 <rio_readlineb+0x9c>
    1f4e:	48 c7 c0 ff ff ff ff 	mov    $0xffffffffffffffff,%rax
    1f55:	eb 1e                	jmp    1f75 <rio_readlineb+0x9c>
    1f57:	83 45 fc 01          	addl   $0x1,-0x4(%rbp)
    1f5b:	8b 45 fc             	mov    -0x4(%rbp),%eax
    1f5e:	48 98                	cltq   
    1f60:	48 3b 45 c8          	cmp    -0x38(%rbp),%rax
    1f64:	72 98                	jb     1efe <rio_readlineb+0x25>
    1f66:	eb 01                	jmp    1f69 <rio_readlineb+0x90>
    1f68:	90                   	nop
    1f69:	48 8b 45 f0          	mov    -0x10(%rbp),%rax
    1f6d:	c6 00 00             	movb   $0x0,(%rax)
    1f70:	8b 45 fc             	mov    -0x4(%rbp),%eax
    1f73:	48 98                	cltq   
    1f75:	c9                   	leaveq 
    1f76:	c3                   	retq   

0000000000001f77 <rio_writen>:
    1f77:	55                   	push   %rbp
    1f78:	48 89 e5             	mov    %rsp,%rbp
    1f7b:	48 83 ec 40          	sub    $0x40,%rsp
    1f7f:	89 7d dc             	mov    %edi,-0x24(%rbp)
    1f82:	48 89 75 d0          	mov    %rsi,-0x30(%rbp)
    1f86:	48 89 55 c8          	mov    %rdx,-0x38(%rbp)
    1f8a:	48 8b 45 c8          	mov    -0x38(%rbp),%rax
    1f8e:	48 89 45 f8          	mov    %rax,-0x8(%rbp)
    1f92:	48 8b 45 d0          	mov    -0x30(%rbp),%rax
    1f96:	48 89 45 e8          	mov    %rax,-0x18(%rbp)
    1f9a:	eb 4f                	jmp    1feb <rio_writen+0x74>
    1f9c:	48 8b 55 f8          	mov    -0x8(%rbp),%rdx
    1fa0:	48 8b 4d e8          	mov    -0x18(%rbp),%rcx
    1fa4:	8b 45 dc             	mov    -0x24(%rbp),%eax
    1fa7:	48 89 ce             	mov    %rcx,%rsi
    1faa:	89 c7                	mov    %eax,%edi
    1fac:	e8 6f ef ff ff       	callq  f20 <write@plt>
    1fb1:	48 89 45 f0          	mov    %rax,-0x10(%rbp)
    1fb5:	48 83 7d f0 00       	cmpq   $0x0,-0x10(%rbp)
    1fba:	7f 1f                	jg     1fdb <rio_writen+0x64>
    1fbc:	e8 2f ef ff ff       	callq  ef0 <__errno_location@plt>
    1fc1:	8b 00                	mov    (%rax),%eax
    1fc3:	83 f8 04             	cmp    $0x4,%eax
    1fc6:	75 0a                	jne    1fd2 <rio_writen+0x5b>
    1fc8:	48 c7 45 f0 00 00 00 	movq   $0x0,-0x10(%rbp)
    1fcf:	00 
    1fd0:	eb 09                	jmp    1fdb <rio_writen+0x64>
    1fd2:	48 c7 c0 ff ff ff ff 	mov    $0xffffffffffffffff,%rax
    1fd9:	eb 1b                	jmp    1ff6 <rio_writen+0x7f>
    1fdb:	48 8b 45 f0          	mov    -0x10(%rbp),%rax
    1fdf:	48 29 45 f8          	sub    %rax,-0x8(%rbp)
    1fe3:	48 8b 45 f0          	mov    -0x10(%rbp),%rax
    1fe7:	48 01 45 e8          	add    %rax,-0x18(%rbp)
    1feb:	48 83 7d f8 00       	cmpq   $0x0,-0x8(%rbp)
    1ff0:	75 aa                	jne    1f9c <rio_writen+0x25>
    1ff2:	48 8b 45 c8          	mov    -0x38(%rbp),%rax
    1ff6:	c9                   	leaveq 
    1ff7:	c3                   	retq   

0000000000001ff8 <urlencode>:
    1ff8:	55                   	push   %rbp
    1ff9:	48 89 e5             	mov    %rsp,%rbp
    1ffc:	48 83 ec 20          	sub    $0x20,%rsp
    2000:	48 89 7d e8          	mov    %rdi,-0x18(%rbp)
    2004:	48 89 75 e0          	mov    %rsi,-0x20(%rbp)
    2008:	48 8b 45 e8          	mov    -0x18(%rbp),%rax
    200c:	48 89 c7             	mov    %rax,%rdi
    200f:	e8 1c ef ff ff       	callq  f30 <strlen@plt>
    2014:	89 45 fc             	mov    %eax,-0x4(%rbp)
    2017:	e9 2e 01 00 00       	jmpq   214a <urlencode+0x152>
    201c:	48 8b 45 e8          	mov    -0x18(%rbp),%rax
    2020:	0f b6 00             	movzbl (%rax),%eax
    2023:	3c 2a                	cmp    $0x2a,%al
    2025:	74 63                	je     208a <urlencode+0x92>
    2027:	48 8b 45 e8          	mov    -0x18(%rbp),%rax
    202b:	0f b6 00             	movzbl (%rax),%eax
    202e:	3c 2d                	cmp    $0x2d,%al
    2030:	74 58                	je     208a <urlencode+0x92>
    2032:	48 8b 45 e8          	mov    -0x18(%rbp),%rax
    2036:	0f b6 00             	movzbl (%rax),%eax
    2039:	3c 2e                	cmp    $0x2e,%al
    203b:	74 4d                	je     208a <urlencode+0x92>
    203d:	48 8b 45 e8          	mov    -0x18(%rbp),%rax
    2041:	0f b6 00             	movzbl (%rax),%eax
    2044:	3c 5f                	cmp    $0x5f,%al
    2046:	74 42                	je     208a <urlencode+0x92>
    2048:	48 8b 45 e8          	mov    -0x18(%rbp),%rax
    204c:	0f b6 00             	movzbl (%rax),%eax
    204f:	3c 2f                	cmp    $0x2f,%al
    2051:	76 0b                	jbe    205e <urlencode+0x66>
    2053:	48 8b 45 e8          	mov    -0x18(%rbp),%rax
    2057:	0f b6 00             	movzbl (%rax),%eax
    205a:	3c 39                	cmp    $0x39,%al
    205c:	76 2c                	jbe    208a <urlencode+0x92>
    205e:	48 8b 45 e8          	mov    -0x18(%rbp),%rax
    2062:	0f b6 00             	movzbl (%rax),%eax
    2065:	3c 40                	cmp    $0x40,%al
    2067:	76 0b                	jbe    2074 <urlencode+0x7c>
    2069:	48 8b 45 e8          	mov    -0x18(%rbp),%rax
    206d:	0f b6 00             	movzbl (%rax),%eax
    2070:	3c 5a                	cmp    $0x5a,%al
    2072:	76 16                	jbe    208a <urlencode+0x92>
    2074:	48 8b 45 e8          	mov    -0x18(%rbp),%rax
    2078:	0f b6 00             	movzbl (%rax),%eax
    207b:	3c 60                	cmp    $0x60,%al
    207d:	76 25                	jbe    20a4 <urlencode+0xac>
    207f:	48 8b 45 e8          	mov    -0x18(%rbp),%rax
    2083:	0f b6 00             	movzbl (%rax),%eax
    2086:	3c 7a                	cmp    $0x7a,%al
    2088:	77 1a                	ja     20a4 <urlencode+0xac>
    208a:	48 8b 45 e0          	mov    -0x20(%rbp),%rax
    208e:	48 8d 50 01          	lea    0x1(%rax),%rdx
    2092:	48 89 55 e0          	mov    %rdx,-0x20(%rbp)
    2096:	48 8b 55 e8          	mov    -0x18(%rbp),%rdx
    209a:	0f b6 12             	movzbl (%rdx),%edx
    209d:	88 10                	mov    %dl,(%rax)
    209f:	e9 a1 00 00 00       	jmpq   2145 <urlencode+0x14d>
    20a4:	48 8b 45 e8          	mov    -0x18(%rbp),%rax
    20a8:	0f b6 00             	movzbl (%rax),%eax
    20ab:	3c 20                	cmp    $0x20,%al
    20ad:	75 14                	jne    20c3 <urlencode+0xcb>
    20af:	48 8b 45 e0          	mov    -0x20(%rbp),%rax
    20b3:	48 8d 50 01          	lea    0x1(%rax),%rdx
    20b7:	48 89 55 e0          	mov    %rdx,-0x20(%rbp)
    20bb:	c6 00 2b             	movb   $0x2b,(%rax)
    20be:	e9 82 00 00 00       	jmpq   2145 <urlencode+0x14d>
    20c3:	48 8b 45 e8          	mov    -0x18(%rbp),%rax
    20c7:	0f b6 00             	movzbl (%rax),%eax
    20ca:	3c 1f                	cmp    $0x1f,%al
    20cc:	76 0b                	jbe    20d9 <urlencode+0xe1>
    20ce:	48 8b 45 e8          	mov    -0x18(%rbp),%rax
    20d2:	0f b6 00             	movzbl (%rax),%eax
    20d5:	84 c0                	test   %al,%al
    20d7:	79 0b                	jns    20e4 <urlencode+0xec>
    20d9:	48 8b 45 e8          	mov    -0x18(%rbp),%rax
    20dd:	0f b6 00             	movzbl (%rax),%eax
    20e0:	3c 09                	cmp    $0x9,%al
    20e2:	75 5a                	jne    213e <urlencode+0x146>
    20e4:	48 8b 45 e8          	mov    -0x18(%rbp),%rax
    20e8:	0f b6 00             	movzbl (%rax),%eax
    20eb:	0f b6 d0             	movzbl %al,%edx
    20ee:	48 8d 45 f4          	lea    -0xc(%rbp),%rax
    20f2:	48 8d 35 d3 0e 00 00 	lea    0xed3(%rip),%rsi        # 2fcc <_IO_stdin_used+0x3cc>
    20f9:	48 89 c7             	mov    %rax,%rdi
    20fc:	b8 00 00 00 00       	mov    $0x0,%eax
    2101:	e8 4a ef ff ff       	callq  1050 <sprintf@plt>
    2106:	48 8b 45 e0          	mov    -0x20(%rbp),%rax
    210a:	48 8d 50 01          	lea    0x1(%rax),%rdx
    210e:	48 89 55 e0          	mov    %rdx,-0x20(%rbp)
    2112:	0f b6 55 f4          	movzbl -0xc(%rbp),%edx
    2116:	88 10                	mov    %dl,(%rax)
    2118:	48 8b 45 e0          	mov    -0x20(%rbp),%rax
    211c:	48 8d 50 01          	lea    0x1(%rax),%rdx
    2120:	48 89 55 e0          	mov    %rdx,-0x20(%rbp)
    2124:	0f b6 55 f5          	movzbl -0xb(%rbp),%edx
    2128:	88 10                	mov    %dl,(%rax)
    212a:	48 8b 45 e0          	mov    -0x20(%rbp),%rax
    212e:	48 8d 50 01          	lea    0x1(%rax),%rdx
    2132:	48 89 55 e0          	mov    %rdx,-0x20(%rbp)
    2136:	0f b6 55 f6          	movzbl -0xa(%rbp),%edx
    213a:	88 10                	mov    %dl,(%rax)
    213c:	eb 07                	jmp    2145 <urlencode+0x14d>
    213e:	b8 ff ff ff ff       	mov    $0xffffffff,%eax
    2143:	eb 1b                	jmp    2160 <urlencode+0x168>
    2145:	48 83 45 e8 01       	addq   $0x1,-0x18(%rbp)
    214a:	8b 45 fc             	mov    -0x4(%rbp),%eax
    214d:	8d 50 ff             	lea    -0x1(%rax),%edx
    2150:	89 55 fc             	mov    %edx,-0x4(%rbp)
    2153:	85 c0                	test   %eax,%eax
    2155:	0f 85 c1 fe ff ff    	jne    201c <urlencode+0x24>
    215b:	b8 00 00 00 00       	mov    $0x0,%eax
    2160:	c9                   	leaveq 
    2161:	c3                   	retq   

0000000000002162 <submitr>:
    2162:	55                   	push   %rbp
    2163:	48 89 e5             	mov    %rsp,%rbp
    2166:	53                   	push   %rbx
    2167:	48 81 ec 88 a0 00 00 	sub    $0xa088,%rsp
    216e:	48 89 bd 98 5f ff ff 	mov    %rdi,-0xa068(%rbp)
    2175:	89 b5 94 5f ff ff    	mov    %esi,-0xa06c(%rbp)
    217b:	48 89 95 88 5f ff ff 	mov    %rdx,-0xa078(%rbp)
    2182:	48 89 8d 80 5f ff ff 	mov    %rcx,-0xa080(%rbp)
    2189:	4c 89 85 78 5f ff ff 	mov    %r8,-0xa088(%rbp)
    2190:	4c 89 8d 70 5f ff ff 	mov    %r9,-0xa090(%rbp)
    2197:	c7 85 ac 7f ff ff 00 	movl   $0x0,-0x8054(%rbp)
    219e:	00 00 00 
    21a1:	ba 00 00 00 00       	mov    $0x0,%edx
    21a6:	be 01 00 00 00       	mov    $0x1,%esi
    21ab:	bf 02 00 00 00       	mov    $0x2,%edi
    21b0:	e8 eb ee ff ff       	callq  10a0 <socket@plt>
    21b5:	89 45 ec             	mov    %eax,-0x14(%rbp)
    21b8:	83 7d ec 00          	cmpl   $0x0,-0x14(%rbp)
    21bc:	79 52                	jns    2210 <submitr+0xae>
    21be:	48 8b 45 10          	mov    0x10(%rbp),%rax
    21c2:	48 bb 45 72 72 6f 72 	movabs $0x43203a726f727245,%rbx
    21c9:	3a 20 43 
    21cc:	48 89 18             	mov    %rbx,(%rax)
    21cf:	48 bb 6c 69 65 6e 74 	movabs $0x6e7520746e65696c,%rbx
    21d6:	20 75 6e 
    21d9:	48 89 58 08          	mov    %rbx,0x8(%rax)
    21dd:	48 bb 61 62 6c 65 20 	movabs $0x206f7420656c6261,%rbx
    21e4:	74 6f 20 
    21e7:	48 89 58 10          	mov    %rbx,0x10(%rax)
    21eb:	48 bb 63 72 65 61 74 	movabs $0x7320657461657263,%rbx
    21f2:	65 20 73 
    21f5:	48 89 58 18          	mov    %rbx,0x18(%rax)
    21f9:	c7 40 20 6f 63 6b 65 	movl   $0x656b636f,0x20(%rax)
    2200:	66 c7 40 24 74 00    	movw   $0x74,0x24(%rax)
    2206:	b8 ff ff ff ff       	mov    $0xffffffff,%eax
    220b:	e9 80 06 00 00       	jmpq   2890 <submitr+0x72e>
    2210:	48 8b 85 98 5f ff ff 	mov    -0xa068(%rbp),%rax
    2217:	48 89 c7             	mov    %rax,%rdi
    221a:	e8 a1 ed ff ff       	callq  fc0 <gethostbyname@plt>
    221f:	48 89 45 e0          	mov    %rax,-0x20(%rbp)
    2223:	48 83 7d e0 00       	cmpq   $0x0,-0x20(%rbp)
    2228:	75 6e                	jne    2298 <submitr+0x136>
    222a:	48 8b 45 10          	mov    0x10(%rbp),%rax
    222e:	48 bb 45 72 72 6f 72 	movabs $0x44203a726f727245,%rbx
    2235:	3a 20 44 
    2238:	48 89 18             	mov    %rbx,(%rax)
    223b:	48 bb 4e 53 20 69 73 	movabs $0x6e7520736920534e,%rbx
    2242:	20 75 6e 
    2245:	48 89 58 08          	mov    %rbx,0x8(%rax)
    2249:	48 bb 61 62 6c 65 20 	movabs $0x206f7420656c6261,%rbx
    2250:	74 6f 20 
    2253:	48 89 58 10          	mov    %rbx,0x10(%rax)
    2257:	48 bb 72 65 73 6f 6c 	movabs $0x2065766c6f736572,%rbx
    225e:	76 65 20 
    2261:	48 89 58 18          	mov    %rbx,0x18(%rax)
    2265:	48 bb 73 65 72 76 65 	movabs $0x6120726576726573,%rbx
    226c:	72 20 61 
    226f:	48 89 58 20          	mov    %rbx,0x20(%rax)
    2273:	c7 40 28 64 64 72 65 	movl   $0x65726464,0x28(%rax)
    227a:	66 c7 40 2c 73 73    	movw   $0x7373,0x2c(%rax)
    2280:	c6 40 2e 00          	movb   $0x0,0x2e(%rax)
    2284:	8b 45 ec             	mov    -0x14(%rbp),%eax
    2287:	89 c7                	mov    %eax,%edi
    2289:	e8 e2 ec ff ff       	callq  f70 <close@plt>
    228e:	b8 ff ff ff ff       	mov    $0xffffffff,%eax
    2293:	e9 f8 05 00 00       	jmpq   2890 <submitr+0x72e>
    2298:	48 8d 45 c0          	lea    -0x40(%rbp),%rax
    229c:	be 10 00 00 00       	mov    $0x10,%esi
    22a1:	48 89 c7             	mov    %rax,%rdi
    22a4:	e8 87 ed ff ff       	callq  1030 <bzero@plt>
    22a9:	66 c7 45 c0 02 00    	movw   $0x2,-0x40(%rbp)
    22af:	48 8b 45 e0          	mov    -0x20(%rbp),%rax
    22b3:	8b 40 14             	mov    0x14(%rax),%eax
    22b6:	48 63 d0             	movslq %eax,%rdx
    22b9:	48 8b 45 e0          	mov    -0x20(%rbp),%rax
    22bd:	48 8b 40 18          	mov    0x18(%rax),%rax
    22c1:	48 8b 00             	mov    (%rax),%rax
    22c4:	48 8d 4d c0          	lea    -0x40(%rbp),%rcx
    22c8:	48 83 c1 04          	add    $0x4,%rcx
    22cc:	48 89 ce             	mov    %rcx,%rsi
    22cf:	48 89 c7             	mov    %rax,%rdi
    22d2:	e8 39 ed ff ff       	callq  1010 <bcopy@plt>
    22d7:	8b 85 94 5f ff ff    	mov    -0xa06c(%rbp),%eax
    22dd:	0f b7 c0             	movzwl %ax,%eax
    22e0:	89 c7                	mov    %eax,%edi
    22e2:	e8 59 ec ff ff       	callq  f40 <htons@plt>
    22e7:	66 89 45 c2          	mov    %ax,-0x3e(%rbp)
    22eb:	48 8d 4d c0          	lea    -0x40(%rbp),%rcx
    22ef:	8b 45 ec             	mov    -0x14(%rbp),%eax
    22f2:	ba 10 00 00 00       	mov    $0x10,%edx
    22f7:	48 89 ce             	mov    %rcx,%rsi
    22fa:	89 c7                	mov    %eax,%edi
    22fc:	e8 6f ed ff ff       	callq  1070 <connect@plt>
    2301:	85 c0                	test   %eax,%eax
    2303:	79 60                	jns    2365 <submitr+0x203>
    2305:	48 8b 45 10          	mov    0x10(%rbp),%rax
    2309:	48 be 45 72 72 6f 72 	movabs $0x55203a726f727245,%rsi
    2310:	3a 20 55 
    2313:	48 89 30             	mov    %rsi,(%rax)
    2316:	48 bb 6e 61 62 6c 65 	movabs $0x6f7420656c62616e,%rbx
    231d:	20 74 6f 
    2320:	48 89 58 08          	mov    %rbx,0x8(%rax)
    2324:	48 b9 20 63 6f 6e 6e 	movabs $0x7463656e6e6f6320,%rcx
    232b:	65 63 74 
    232e:	48 89 48 10          	mov    %rcx,0x10(%rax)
    2332:	48 be 20 74 6f 20 74 	movabs $0x20656874206f7420,%rsi
    2339:	68 65 20 
    233c:	48 89 70 18          	mov    %rsi,0x18(%rax)
    2340:	c7 40 20 73 65 72 76 	movl   $0x76726573,0x20(%rax)
    2347:	66 c7 40 24 65 72    	movw   $0x7265,0x24(%rax)
    234d:	c6 40 26 00          	movb   $0x0,0x26(%rax)
    2351:	8b 45 ec             	mov    -0x14(%rbp),%eax
    2354:	89 c7                	mov    %eax,%edi
    2356:	e8 15 ec ff ff       	callq  f70 <close@plt>
    235b:	b8 ff ff ff ff       	mov    $0xffffffff,%eax
    2360:	e9 2b 05 00 00       	jmpq   2890 <submitr+0x72e>
    2365:	48 8b 85 70 5f ff ff 	mov    -0xa090(%rbp),%rax
    236c:	48 89 c7             	mov    %rax,%rdi
    236f:	e8 bc eb ff ff       	callq  f30 <strlen@plt>
    2374:	48 89 45 d8          	mov    %rax,-0x28(%rbp)
    2378:	48 8b 85 88 5f ff ff 	mov    -0xa078(%rbp),%rax
    237f:	48 89 c7             	mov    %rax,%rdi
    2382:	e8 a9 eb ff ff       	callq  f30 <strlen@plt>
    2387:	48 89 c3             	mov    %rax,%rbx
    238a:	48 8b 85 80 5f ff ff 	mov    -0xa080(%rbp),%rax
    2391:	48 89 c7             	mov    %rax,%rdi
    2394:	e8 97 eb ff ff       	callq  f30 <strlen@plt>
    2399:	48 01 c3             	add    %rax,%rbx
    239c:	48 8b 85 78 5f ff ff 	mov    -0xa088(%rbp),%rax
    23a3:	48 89 c7             	mov    %rax,%rdi
    23a6:	e8 85 eb ff ff       	callq  f30 <strlen@plt>
    23ab:	48 8d 0c 03          	lea    (%rbx,%rax,1),%rcx
    23af:	48 8b 55 d8          	mov    -0x28(%rbp),%rdx
    23b3:	48 89 d0             	mov    %rdx,%rax
    23b6:	48 01 c0             	add    %rax,%rax
    23b9:	48 01 d0             	add    %rdx,%rax
    23bc:	48 01 c8             	add    %rcx,%rax
    23bf:	48 83 e8 80          	sub    $0xffffffffffffff80,%rax
    23c3:	48 89 45 d0          	mov    %rax,-0x30(%rbp)
    23c7:	48 81 7d d0 00 20 00 	cmpq   $0x2000,-0x30(%rbp)
    23ce:	00 
    23cf:	76 79                	jbe    244a <submitr+0x2e8>
    23d1:	48 8b 45 10          	mov    0x10(%rbp),%rax
    23d5:	48 bb 45 72 72 6f 72 	movabs $0x52203a726f727245,%rbx
    23dc:	3a 20 52 
    23df:	48 89 18             	mov    %rbx,(%rax)
    23e2:	48 b9 65 73 75 6c 74 	movabs $0x747320746c757365,%rcx
    23e9:	20 73 74 
    23ec:	48 89 48 08          	mov    %rcx,0x8(%rax)
    23f0:	48 be 72 69 6e 67 20 	movabs $0x6f6f7420676e6972,%rsi
    23f7:	74 6f 6f 
    23fa:	48 89 70 10          	mov    %rsi,0x10(%rax)
    23fe:	48 bb 20 6c 61 72 67 	movabs $0x202e656772616c20,%rbx
    2405:	65 2e 20 
    2408:	48 89 58 18          	mov    %rbx,0x18(%rax)
    240c:	48 ba 49 6e 63 72 65 	movabs $0x6573616572636e49,%rdx
    2413:	61 73 65 
    2416:	48 89 50 20          	mov    %rdx,0x20(%rax)
    241a:	48 b9 20 53 55 42 4d 	movabs $0x5254494d42555320,%rcx
    2421:	49 54 52 
    2424:	48 89 48 28          	mov    %rcx,0x28(%rax)
    2428:	48 be 5f 4d 41 58 42 	movabs $0x46554258414d5f,%rsi
    242f:	55 46 00 
    2432:	48 89 70 30          	mov    %rsi,0x30(%rax)
    2436:	8b 45 ec             	mov    -0x14(%rbp),%eax
    2439:	89 c7                	mov    %eax,%edi
    243b:	e8 30 eb ff ff       	callq  f70 <close@plt>
    2440:	b8 ff ff ff ff       	mov    $0xffffffff,%eax
    2445:	e9 46 04 00 00       	jmpq   2890 <submitr+0x72e>
    244a:	48 8d 85 b0 9f ff ff 	lea    -0x6050(%rbp),%rax
    2451:	be 00 20 00 00       	mov    $0x2000,%esi
    2456:	48 89 c7             	mov    %rax,%rdi
    2459:	e8 d2 eb ff ff       	callq  1030 <bzero@plt>
    245e:	48 8d 95 b0 9f ff ff 	lea    -0x6050(%rbp),%rdx
    2465:	48 8b 85 70 5f ff ff 	mov    -0xa090(%rbp),%rax
    246c:	48 89 d6             	mov    %rdx,%rsi
    246f:	48 89 c7             	mov    %rax,%rdi
    2472:	e8 81 fb ff ff       	callq  1ff8 <urlencode>
    2477:	85 c0                	test   %eax,%eax
    2479:	0f 89 91 00 00 00    	jns    2510 <submitr+0x3ae>
    247f:	48 8b 45 10          	mov    0x10(%rbp),%rax
    2483:	48 bb 45 72 72 6f 72 	movabs $0x52203a726f727245,%rbx
    248a:	3a 20 52 
    248d:	48 89 18             	mov    %rbx,(%rax)
    2490:	48 ba 65 73 75 6c 74 	movabs $0x747320746c757365,%rdx
    2497:	20 73 74 
    249a:	48 89 50 08          	mov    %rdx,0x8(%rax)
    249e:	48 b9 72 69 6e 67 20 	movabs $0x6e6f6320676e6972,%rcx
    24a5:	63 6f 6e 
    24a8:	48 89 48 10          	mov    %rcx,0x10(%rax)
    24ac:	48 be 74 61 69 6e 73 	movabs $0x6e6120736e696174,%rsi
    24b3:	20 61 6e 
    24b6:	48 89 70 18          	mov    %rsi,0x18(%rax)
    24ba:	48 bb 20 69 6c 6c 65 	movabs $0x6c6167656c6c6920,%rbx
    24c1:	67 61 6c 
    24c4:	48 89 58 20          	mov    %rbx,0x20(%rax)
    24c8:	48 ba 20 6f 72 20 75 	movabs $0x72706e7520726f20,%rdx
    24cf:	6e 70 72 
    24d2:	48 89 50 28          	mov    %rdx,0x28(%rax)
    24d6:	48 b9 69 6e 74 61 62 	movabs $0x20656c6261746e69,%rcx
    24dd:	6c 65 20 
    24e0:	48 89 48 30          	mov    %rcx,0x30(%rax)
    24e4:	48 be 63 68 61 72 61 	movabs $0x6574636172616863,%rsi
    24eb:	63 74 65 
    24ee:	48 89 70 38          	mov    %rsi,0x38(%rax)
    24f2:	66 c7 40 40 72 2e    	movw   $0x2e72,0x40(%rax)
    24f8:	c6 40 42 00          	movb   $0x0,0x42(%rax)
    24fc:	8b 45 ec             	mov    -0x14(%rbp),%eax
    24ff:	89 c7                	mov    %eax,%edi
    2501:	e8 6a ea ff ff       	callq  f70 <close@plt>
    2506:	b8 ff ff ff ff       	mov    $0xffffffff,%eax
    250b:	e9 80 03 00 00       	jmpq   2890 <submitr+0x72e>
    2510:	48 8d bd b0 9f ff ff 	lea    -0x6050(%rbp),%rdi
    2517:	48 8b b5 78 5f ff ff 	mov    -0xa088(%rbp),%rsi
    251e:	48 8b 8d 80 5f ff ff 	mov    -0xa080(%rbp),%rcx
    2525:	48 8b 95 88 5f ff ff 	mov    -0xa078(%rbp),%rdx
    252c:	48 8d 85 b0 bf ff ff 	lea    -0x4050(%rbp),%rax
    2533:	49 89 f9             	mov    %rdi,%r9
    2536:	49 89 f0             	mov    %rsi,%r8
    2539:	48 8d 35 98 0a 00 00 	lea    0xa98(%rip),%rsi        # 2fd8 <_IO_stdin_used+0x3d8>
    2540:	48 89 c7             	mov    %rax,%rdi
    2543:	b8 00 00 00 00       	mov    $0x0,%eax
    2548:	e8 03 eb ff ff       	callq  1050 <sprintf@plt>
    254d:	48 8d 85 b0 bf ff ff 	lea    -0x4050(%rbp),%rax
    2554:	48 89 c7             	mov    %rax,%rdi
    2557:	e8 d4 e9 ff ff       	callq  f30 <strlen@plt>
    255c:	48 89 c2             	mov    %rax,%rdx
    255f:	48 8d 8d b0 bf ff ff 	lea    -0x4050(%rbp),%rcx
    2566:	8b 45 ec             	mov    -0x14(%rbp),%eax
    2569:	48 89 ce             	mov    %rcx,%rsi
    256c:	89 c7                	mov    %eax,%edi
    256e:	e8 04 fa ff ff       	callq  1f77 <rio_writen>
    2573:	48 85 c0             	test   %rax,%rax
    2576:	79 64                	jns    25dc <submitr+0x47a>
    2578:	48 8b 45 10          	mov    0x10(%rbp),%rax
    257c:	48 bb 45 72 72 6f 72 	movabs $0x43203a726f727245,%rbx
    2583:	3a 20 43 
    2586:	48 89 18             	mov    %rbx,(%rax)
    2589:	48 ba 6c 69 65 6e 74 	movabs $0x6e7520746e65696c,%rdx
    2590:	20 75 6e 
    2593:	48 89 50 08          	mov    %rdx,0x8(%rax)
    2597:	48 b9 61 62 6c 65 20 	movabs $0x206f7420656c6261,%rcx
    259e:	74 6f 20 
    25a1:	48 89 48 10          	mov    %rcx,0x10(%rax)
    25a5:	48 be 77 72 69 74 65 	movabs $0x6f74206574697277,%rsi
    25ac:	20 74 6f 
    25af:	48 89 70 18          	mov    %rsi,0x18(%rax)
    25b3:	48 bb 20 74 68 65 20 	movabs $0x7265732065687420,%rbx
    25ba:	73 65 72 
    25bd:	48 89 58 20          	mov    %rbx,0x20(%rax)
    25c1:	c7 40 28 76 65 72 00 	movl   $0x726576,0x28(%rax)
    25c8:	8b 45 ec             	mov    -0x14(%rbp),%eax
    25cb:	89 c7                	mov    %eax,%edi
    25cd:	e8 9e e9 ff ff       	callq  f70 <close@plt>
    25d2:	b8 ff ff ff ff       	mov    $0xffffffff,%eax
    25d7:	e9 b4 02 00 00       	jmpq   2890 <submitr+0x72e>
    25dc:	8b 55 ec             	mov    -0x14(%rbp),%edx
    25df:	48 8d 85 b0 df ff ff 	lea    -0x2050(%rbp),%rax
    25e6:	89 d6                	mov    %edx,%esi
    25e8:	48 89 c7             	mov    %rax,%rdi
    25eb:	e8 b9 f7 ff ff       	callq  1da9 <rio_readinitb>
    25f0:	48 8d 8d b0 bf ff ff 	lea    -0x4050(%rbp),%rcx
    25f7:	48 8d 85 b0 df ff ff 	lea    -0x2050(%rbp),%rax
    25fe:	ba 00 20 00 00       	mov    $0x2000,%edx
    2603:	48 89 ce             	mov    %rcx,%rsi
    2606:	48 89 c7             	mov    %rax,%rdi
    2609:	e8 cb f8 ff ff       	callq  1ed9 <rio_readlineb>
    260e:	48 85 c0             	test   %rax,%rax
    2611:	7f 78                	jg     268b <submitr+0x529>
    2613:	48 8b 45 10          	mov    0x10(%rbp),%rax
    2617:	48 ba 45 72 72 6f 72 	movabs $0x43203a726f727245,%rdx
    261e:	3a 20 43 
    2621:	48 89 10             	mov    %rdx,(%rax)
    2624:	48 b9 6c 69 65 6e 74 	movabs $0x6e7520746e65696c,%rcx
    262b:	20 75 6e 
    262e:	48 89 48 08          	mov    %rcx,0x8(%rax)
    2632:	48 be 61 62 6c 65 20 	movabs $0x206f7420656c6261,%rsi
    2639:	74 6f 20 
    263c:	48 89 70 10          	mov    %rsi,0x10(%rax)
    2640:	48 bb 72 65 61 64 20 	movabs $0x7269662064616572,%rbx
    2647:	66 69 72 
    264a:	48 89 58 18          	mov    %rbx,0x18(%rax)
    264e:	48 bf 73 74 20 68 65 	movabs $0x6564616568207473,%rdi
    2655:	61 64 65 
    2658:	48 89 78 20          	mov    %rdi,0x20(%rax)
    265c:	48 ba 72 20 66 72 6f 	movabs $0x73206d6f72662072,%rdx
    2663:	6d 20 73 
    2666:	48 89 50 28          	mov    %rdx,0x28(%rax)
    266a:	c7 40 30 65 72 76 65 	movl   $0x65767265,0x30(%rax)
    2671:	66 c7 40 34 72 00    	movw   $0x72,0x34(%rax)
    2677:	8b 45 ec             	mov    -0x14(%rbp),%eax
    267a:	89 c7                	mov    %eax,%edi
    267c:	e8 ef e8 ff ff       	callq  f70 <close@plt>
    2681:	b8 ff ff ff ff       	mov    $0xffffffff,%eax
    2686:	e9 05 02 00 00       	jmpq   2890 <submitr+0x72e>
    268b:	48 8d b5 a0 5f ff ff 	lea    -0xa060(%rbp),%rsi
    2692:	48 8d 8d ac 7f ff ff 	lea    -0x8054(%rbp),%rcx
    2699:	48 8d 95 b0 7f ff ff 	lea    -0x8050(%rbp),%rdx
    26a0:	48 8d 85 b0 bf ff ff 	lea    -0x4050(%rbp),%rax
    26a7:	49 89 f0             	mov    %rsi,%r8
    26aa:	48 8d 35 71 09 00 00 	lea    0x971(%rip),%rsi        # 3022 <_IO_stdin_used+0x422>
    26b1:	48 89 c7             	mov    %rax,%rdi
    26b4:	b8 00 00 00 00       	mov    $0x0,%eax
    26b9:	e8 42 e9 ff ff       	callq  1000 <__isoc99_sscanf@plt>
    26be:	8b 85 ac 7f ff ff    	mov    -0x8054(%rbp),%eax
    26c4:	3d c8 00 00 00       	cmp    $0xc8,%eax
    26c9:	0f 84 cd 00 00 00    	je     279c <submitr+0x63a>
    26cf:	8b 85 ac 7f ff ff    	mov    -0x8054(%rbp),%eax
    26d5:	48 8d 95 a0 5f ff ff 	lea    -0xa060(%rbp),%rdx
    26dc:	48 89 d1             	mov    %rdx,%rcx
    26df:	89 c2                	mov    %eax,%edx
    26e1:	48 8d 35 50 09 00 00 	lea    0x950(%rip),%rsi        # 3038 <_IO_stdin_used+0x438>
    26e8:	48 8b 7d 10          	mov    0x10(%rbp),%rdi
    26ec:	b8 00 00 00 00       	mov    $0x0,%eax
    26f1:	e8 5a e9 ff ff       	callq  1050 <sprintf@plt>
    26f6:	8b 45 ec             	mov    -0x14(%rbp),%eax
    26f9:	89 c7                	mov    %eax,%edi
    26fb:	e8 70 e8 ff ff       	callq  f70 <close@plt>
    2700:	b8 ff ff ff ff       	mov    $0xffffffff,%eax
    2705:	e9 86 01 00 00       	jmpq   2890 <submitr+0x72e>
    270a:	48 8d 8d b0 bf ff ff 	lea    -0x4050(%rbp),%rcx
    2711:	48 8d 85 b0 df ff ff 	lea    -0x2050(%rbp),%rax
    2718:	ba 00 20 00 00       	mov    $0x2000,%edx
    271d:	48 89 ce             	mov    %rcx,%rsi
    2720:	48 89 c7             	mov    %rax,%rdi
    2723:	e8 b1 f7 ff ff       	callq  1ed9 <rio_readlineb>
    2728:	48 85 c0             	test   %rax,%rax
    272b:	7f 6f                	jg     279c <submitr+0x63a>
    272d:	48 8b 45 10          	mov    0x10(%rbp),%rax
    2731:	48 b9 45 72 72 6f 72 	movabs $0x43203a726f727245,%rcx
    2738:	3a 20 43 
    273b:	48 89 08             	mov    %rcx,(%rax)
    273e:	48 be 6c 69 65 6e 74 	movabs $0x6e7520746e65696c,%rsi
    2745:	20 75 6e 
    2748:	48 89 70 08          	mov    %rsi,0x8(%rax)
    274c:	48 bb 61 62 6c 65 20 	movabs $0x206f7420656c6261,%rbx
    2753:	74 6f 20 
    2756:	48 89 58 10          	mov    %rbx,0x10(%rax)
    275a:	48 bf 72 65 61 64 20 	movabs $0x6165682064616572,%rdi
    2761:	68 65 61 
    2764:	48 89 78 18          	mov    %rdi,0x18(%rax)
    2768:	48 ba 64 65 72 73 20 	movabs $0x6f72662073726564,%rdx
    276f:	66 72 6f 
    2772:	48 89 50 20          	mov    %rdx,0x20(%rax)
    2776:	48 b9 6d 20 73 65 72 	movabs $0x726576726573206d,%rcx
    277d:	76 65 72 
    2780:	48 89 48 28          	mov    %rcx,0x28(%rax)
    2784:	c6 40 30 00          	movb   $0x0,0x30(%rax)
    2788:	8b 45 ec             	mov    -0x14(%rbp),%eax
    278b:	89 c7                	mov    %eax,%edi
    278d:	e8 de e7 ff ff       	callq  f70 <close@plt>
    2792:	b8 ff ff ff ff       	mov    $0xffffffff,%eax
    2797:	e9 f4 00 00 00       	jmpq   2890 <submitr+0x72e>
    279c:	48 8d 85 b0 bf ff ff 	lea    -0x4050(%rbp),%rax
    27a3:	48 8d 35 bb 08 00 00 	lea    0x8bb(%rip),%rsi        # 3065 <_IO_stdin_used+0x465>
    27aa:	48 89 c7             	mov    %rax,%rdi
    27ad:	e8 ee e7 ff ff       	callq  fa0 <strcmp@plt>
    27b2:	85 c0                	test   %eax,%eax
    27b4:	0f 85 50 ff ff ff    	jne    270a <submitr+0x5a8>
    27ba:	48 8d 8d b0 bf ff ff 	lea    -0x4050(%rbp),%rcx
    27c1:	48 8d 85 b0 df ff ff 	lea    -0x2050(%rbp),%rax
    27c8:	ba 00 20 00 00       	mov    $0x2000,%edx
    27cd:	48 89 ce             	mov    %rcx,%rsi
    27d0:	48 89 c7             	mov    %rax,%rdi
    27d3:	e8 01 f7 ff ff       	callq  1ed9 <rio_readlineb>
    27d8:	48 85 c0             	test   %rax,%rax
    27db:	7f 76                	jg     2853 <submitr+0x6f1>
    27dd:	48 8b 45 10          	mov    0x10(%rbp),%rax
    27e1:	48 be 45 72 72 6f 72 	movabs $0x43203a726f727245,%rsi
    27e8:	3a 20 43 
    27eb:	48 89 30             	mov    %rsi,(%rax)
    27ee:	48 bb 6c 69 65 6e 74 	movabs $0x6e7520746e65696c,%rbx
    27f5:	20 75 6e 
    27f8:	48 89 58 08          	mov    %rbx,0x8(%rax)
    27fc:	48 bf 61 62 6c 65 20 	movabs $0x206f7420656c6261,%rdi
    2803:	74 6f 20 
    2806:	48 89 78 10          	mov    %rdi,0x10(%rax)
    280a:	48 ba 72 65 61 64 20 	movabs $0x6174732064616572,%rdx
    2811:	73 74 61 
    2814:	48 89 50 18          	mov    %rdx,0x18(%rax)
    2818:	48 b9 74 75 73 20 6d 	movabs $0x7373656d20737574,%rcx
    281f:	65 73 73 
    2822:	48 89 48 20          	mov    %rcx,0x20(%rax)
    2826:	48 be 61 67 65 20 66 	movabs $0x6d6f726620656761,%rsi
    282d:	72 6f 6d 
    2830:	48 89 70 28          	mov    %rsi,0x28(%rax)
    2834:	48 bb 20 73 65 72 76 	movabs $0x72657672657320,%rbx
    283b:	65 72 00 
    283e:	48 89 58 30          	mov    %rbx,0x30(%rax)
    2842:	8b 45 ec             	mov    -0x14(%rbp),%eax
    2845:	89 c7                	mov    %eax,%edi
    2847:	e8 24 e7 ff ff       	callq  f70 <close@plt>
    284c:	b8 ff ff ff ff       	mov    $0xffffffff,%eax
    2851:	eb 3d                	jmp    2890 <submitr+0x72e>
    2853:	48 8d 85 b0 bf ff ff 	lea    -0x4050(%rbp),%rax
    285a:	48 89 c6             	mov    %rax,%rsi
    285d:	48 8b 7d 10          	mov    0x10(%rbp),%rdi
    2861:	e8 9a e6 ff ff       	callq  f00 <strcpy@plt>
    2866:	8b 45 ec             	mov    -0x14(%rbp),%eax
    2869:	89 c7                	mov    %eax,%edi
    286b:	e8 00 e7 ff ff       	callq  f70 <close@plt>
    2870:	48 8d 35 f1 07 00 00 	lea    0x7f1(%rip),%rsi        # 3068 <_IO_stdin_used+0x468>
    2877:	48 8b 7d 10          	mov    0x10(%rbp),%rdi
    287b:	e8 20 e7 ff ff       	callq  fa0 <strcmp@plt>
    2880:	85 c0                	test   %eax,%eax
    2882:	75 07                	jne    288b <submitr+0x729>
    2884:	b8 00 00 00 00       	mov    $0x0,%eax
    2889:	eb 05                	jmp    2890 <submitr+0x72e>
    288b:	b8 ff ff ff ff       	mov    $0xffffffff,%eax
    2890:	48 81 c4 88 a0 00 00 	add    $0xa088,%rsp
    2897:	5b                   	pop    %rbx
    2898:	5d                   	pop    %rbp
    2899:	c3                   	retq   

000000000000289a <init_timeout>:
    289a:	55                   	push   %rbp
    289b:	48 89 e5             	mov    %rsp,%rbp
    289e:	48 83 ec 10          	sub    $0x10,%rsp
    28a2:	89 7d fc             	mov    %edi,-0x4(%rbp)
    28a5:	83 7d fc 00          	cmpl   $0x0,-0x4(%rbp)
    28a9:	74 2a                	je     28d5 <init_timeout+0x3b>
    28ab:	83 7d fc 00          	cmpl   $0x0,-0x4(%rbp)
    28af:	79 07                	jns    28b8 <init_timeout+0x1e>
    28b1:	c7 45 fc 00 00 00 00 	movl   $0x0,-0x4(%rbp)
    28b8:	48 8d 35 b5 f4 ff ff 	lea    -0xb4b(%rip),%rsi        # 1d74 <sigalrm_handler>
    28bf:	bf 0e 00 00 00       	mov    $0xe,%edi
    28c4:	e8 e7 e6 ff ff       	callq  fb0 <signal@plt>
    28c9:	8b 45 fc             	mov    -0x4(%rbp),%eax
    28cc:	89 c7                	mov    %eax,%edi
    28ce:	e8 8d e6 ff ff       	callq  f60 <alarm@plt>
    28d3:	eb 01                	jmp    28d6 <init_timeout+0x3c>
    28d5:	90                   	nop
    28d6:	c9                   	leaveq 
    28d7:	c3                   	retq   

00000000000028d8 <init_driver>:
    28d8:	55                   	push   %rbp
    28d9:	48 89 e5             	mov    %rsp,%rbp
    28dc:	48 83 ec 40          	sub    $0x40,%rsp
    28e0:	48 89 7d c8          	mov    %rdi,-0x38(%rbp)
    28e4:	48 8d 05 80 07 00 00 	lea    0x780(%rip),%rax        # 306b <_IO_stdin_used+0x46b>
    28eb:	48 89 45 f8          	mov    %rax,-0x8(%rbp)
    28ef:	c7 45 f4 6e 3b 00 00 	movl   $0x3b6e,-0xc(%rbp)
    28f6:	be 01 00 00 00       	mov    $0x1,%esi
    28fb:	bf 0d 00 00 00       	mov    $0xd,%edi
    2900:	e8 ab e6 ff ff       	callq  fb0 <signal@plt>
    2905:	be 01 00 00 00       	mov    $0x1,%esi
    290a:	bf 1d 00 00 00       	mov    $0x1d,%edi
    290f:	e8 9c e6 ff ff       	callq  fb0 <signal@plt>
    2914:	be 01 00 00 00       	mov    $0x1,%esi
    2919:	bf 1d 00 00 00       	mov    $0x1d,%edi
    291e:	e8 8d e6 ff ff       	callq  fb0 <signal@plt>
    2923:	ba 00 00 00 00       	mov    $0x0,%edx
    2928:	be 01 00 00 00       	mov    $0x1,%esi
    292d:	bf 02 00 00 00       	mov    $0x2,%edi
    2932:	e8 69 e7 ff ff       	callq  10a0 <socket@plt>
    2937:	89 45 f0             	mov    %eax,-0x10(%rbp)
    293a:	83 7d f0 00          	cmpl   $0x0,-0x10(%rbp)
    293e:	79 52                	jns    2992 <init_driver+0xba>
    2940:	48 8b 45 c8          	mov    -0x38(%rbp),%rax
    2944:	48 b9 45 72 72 6f 72 	movabs $0x43203a726f727245,%rcx
    294b:	3a 20 43 
    294e:	48 89 08             	mov    %rcx,(%rax)
    2951:	48 ba 6c 69 65 6e 74 	movabs $0x6e7520746e65696c,%rdx
    2958:	20 75 6e 
    295b:	48 89 50 08          	mov    %rdx,0x8(%rax)
    295f:	48 b9 61 62 6c 65 20 	movabs $0x206f7420656c6261,%rcx
    2966:	74 6f 20 
    2969:	48 89 48 10          	mov    %rcx,0x10(%rax)
    296d:	48 be 63 72 65 61 74 	movabs $0x7320657461657263,%rsi
    2974:	65 20 73 
    2977:	48 89 70 18          	mov    %rsi,0x18(%rax)
    297b:	c7 40 20 6f 63 6b 65 	movl   $0x656b636f,0x20(%rax)
    2982:	66 c7 40 24 74 00    	movw   $0x74,0x24(%rax)
    2988:	b8 ff ff ff ff       	mov    $0xffffffff,%eax
    298d:	e9 38 01 00 00       	jmpq   2aca <init_driver+0x1f2>
    2992:	48 8b 45 f8          	mov    -0x8(%rbp),%rax
    2996:	48 89 c7             	mov    %rax,%rdi
    2999:	e8 22 e6 ff ff       	callq  fc0 <gethostbyname@plt>
    299e:	48 89 45 e8          	mov    %rax,-0x18(%rbp)
    29a2:	48 83 7d e8 00       	cmpq   $0x0,-0x18(%rbp)
    29a7:	75 6e                	jne    2a17 <init_driver+0x13f>
    29a9:	48 8b 45 c8          	mov    -0x38(%rbp),%rax
    29ad:	48 ba 45 72 72 6f 72 	movabs $0x44203a726f727245,%rdx
    29b4:	3a 20 44 
    29b7:	48 89 10             	mov    %rdx,(%rax)
    29ba:	48 b9 4e 53 20 69 73 	movabs $0x6e7520736920534e,%rcx
    29c1:	20 75 6e 
    29c4:	48 89 48 08          	mov    %rcx,0x8(%rax)
    29c8:	48 be 61 62 6c 65 20 	movabs $0x206f7420656c6261,%rsi
    29cf:	74 6f 20 
    29d2:	48 89 70 10          	mov    %rsi,0x10(%rax)
    29d6:	48 ba 72 65 73 6f 6c 	movabs $0x2065766c6f736572,%rdx
    29dd:	76 65 20 
    29e0:	48 89 50 18          	mov    %rdx,0x18(%rax)
    29e4:	48 b9 73 65 72 76 65 	movabs $0x6120726576726573,%rcx
    29eb:	72 20 61 
    29ee:	48 89 48 20          	mov    %rcx,0x20(%rax)
    29f2:	c7 40 28 64 64 72 65 	movl   $0x65726464,0x28(%rax)
    29f9:	66 c7 40 2c 73 73    	movw   $0x7373,0x2c(%rax)
    29ff:	c6 40 2e 00          	movb   $0x0,0x2e(%rax)
    2a03:	8b 45 f0             	mov    -0x10(%rbp),%eax
    2a06:	89 c7                	mov    %eax,%edi
    2a08:	e8 63 e5 ff ff       	callq  f70 <close@plt>
    2a0d:	b8 ff ff ff ff       	mov    $0xffffffff,%eax
    2a12:	e9 b3 00 00 00       	jmpq   2aca <init_driver+0x1f2>
    2a17:	48 8d 45 d0          	lea    -0x30(%rbp),%rax
    2a1b:	be 10 00 00 00       	mov    $0x10,%esi
    2a20:	48 89 c7             	mov    %rax,%rdi
    2a23:	e8 08 e6 ff ff       	callq  1030 <bzero@plt>
    2a28:	66 c7 45 d0 02 00    	movw   $0x2,-0x30(%rbp)
    2a2e:	48 8b 45 e8          	mov    -0x18(%rbp),%rax
    2a32:	8b 40 14             	mov    0x14(%rax),%eax
    2a35:	48 63 d0             	movslq %eax,%rdx
    2a38:	48 8b 45 e8          	mov    -0x18(%rbp),%rax
    2a3c:	48 8b 40 18          	mov    0x18(%rax),%rax
    2a40:	48 8b 00             	mov    (%rax),%rax
    2a43:	48 8d 4d d0          	lea    -0x30(%rbp),%rcx
    2a47:	48 83 c1 04          	add    $0x4,%rcx
    2a4b:	48 89 ce             	mov    %rcx,%rsi
    2a4e:	48 89 c7             	mov    %rax,%rdi
    2a51:	e8 ba e5 ff ff       	callq  1010 <bcopy@plt>
    2a56:	8b 45 f4             	mov    -0xc(%rbp),%eax
    2a59:	0f b7 c0             	movzwl %ax,%eax
    2a5c:	89 c7                	mov    %eax,%edi
    2a5e:	e8 dd e4 ff ff       	callq  f40 <htons@plt>
    2a63:	66 89 45 d2          	mov    %ax,-0x2e(%rbp)
    2a67:	48 8d 4d d0          	lea    -0x30(%rbp),%rcx
    2a6b:	8b 45 f0             	mov    -0x10(%rbp),%eax
    2a6e:	ba 10 00 00 00       	mov    $0x10,%edx
    2a73:	48 89 ce             	mov    %rcx,%rsi
    2a76:	89 c7                	mov    %eax,%edi
    2a78:	e8 f3 e5 ff ff       	callq  1070 <connect@plt>
    2a7d:	85 c0                	test   %eax,%eax
    2a7f:	79 2d                	jns    2aae <init_driver+0x1d6>
    2a81:	48 8b 55 f8          	mov    -0x8(%rbp),%rdx
    2a85:	48 8b 45 c8          	mov    -0x38(%rbp),%rax
    2a89:	48 8d 35 f8 05 00 00 	lea    0x5f8(%rip),%rsi        # 3088 <_IO_stdin_used+0x488>
    2a90:	48 89 c7             	mov    %rax,%rdi
    2a93:	b8 00 00 00 00       	mov    $0x0,%eax
    2a98:	e8 b3 e5 ff ff       	callq  1050 <sprintf@plt>
    2a9d:	8b 45 f0             	mov    -0x10(%rbp),%eax
    2aa0:	89 c7                	mov    %eax,%edi
    2aa2:	e8 c9 e4 ff ff       	callq  f70 <close@plt>
    2aa7:	b8 ff ff ff ff       	mov    $0xffffffff,%eax
    2aac:	eb 1c                	jmp    2aca <init_driver+0x1f2>
    2aae:	8b 45 f0             	mov    -0x10(%rbp),%eax
    2ab1:	89 c7                	mov    %eax,%edi
    2ab3:	e8 b8 e4 ff ff       	callq  f70 <close@plt>
    2ab8:	48 8b 45 c8          	mov    -0x38(%rbp),%rax
    2abc:	66 c7 00 4f 4b       	movw   $0x4b4f,(%rax)
    2ac1:	c6 40 02 00          	movb   $0x0,0x2(%rax)
    2ac5:	b8 00 00 00 00       	mov    $0x0,%eax
    2aca:	c9                   	leaveq 
    2acb:	c3                   	retq   

0000000000002acc <driver_post>:
    2acc:	55                   	push   %rbp
    2acd:	48 89 e5             	mov    %rsp,%rbp
    2ad0:	48 83 ec 30          	sub    $0x30,%rsp
    2ad4:	48 89 7d e8          	mov    %rdi,-0x18(%rbp)
    2ad8:	48 89 75 e0          	mov    %rsi,-0x20(%rbp)
    2adc:	89 55 dc             	mov    %edx,-0x24(%rbp)
    2adf:	48 89 4d d0          	mov    %rcx,-0x30(%rbp)
    2ae3:	83 7d dc 00          	cmpl   $0x0,-0x24(%rbp)
    2ae7:	74 2c                	je     2b15 <driver_post+0x49>
    2ae9:	48 8b 45 e0          	mov    -0x20(%rbp),%rax
    2aed:	48 89 c6             	mov    %rax,%rsi
    2af0:	48 8d 3d b7 05 00 00 	lea    0x5b7(%rip),%rdi        # 30ae <_IO_stdin_used+0x4ae>
    2af7:	b8 00 00 00 00       	mov    $0x0,%eax
    2afc:	e8 4f e4 ff ff       	callq  f50 <printf@plt>
    2b01:	48 8b 45 d0          	mov    -0x30(%rbp),%rax
    2b05:	66 c7 00 4f 4b       	movw   $0x4b4f,(%rax)
    2b0a:	c6 40 02 00          	movb   $0x0,0x2(%rax)
    2b0e:	b8 00 00 00 00       	mov    $0x0,%eax
    2b13:	eb 64                	jmp    2b79 <driver_post+0xad>
    2b15:	48 83 7d e8 00       	cmpq   $0x0,-0x18(%rbp)
    2b1a:	74 4b                	je     2b67 <driver_post+0x9b>
    2b1c:	48 8b 45 e8          	mov    -0x18(%rbp),%rax
    2b20:	0f b6 00             	movzbl (%rax),%eax
    2b23:	84 c0                	test   %al,%al
    2b25:	74 40                	je     2b67 <driver_post+0x9b>
    2b27:	48 8b 55 e0          	mov    -0x20(%rbp),%rdx
    2b2b:	48 8b 45 e8          	mov    -0x18(%rbp),%rax
    2b2f:	48 83 ec 08          	sub    $0x8,%rsp
    2b33:	ff 75 d0             	pushq  -0x30(%rbp)
    2b36:	49 89 d1             	mov    %rdx,%r9
    2b39:	4c 8d 05 85 05 00 00 	lea    0x585(%rip),%r8        # 30c5 <_IO_stdin_used+0x4c5>
    2b40:	48 89 c1             	mov    %rax,%rcx
    2b43:	48 8d 15 83 05 00 00 	lea    0x583(%rip),%rdx        # 30cd <_IO_stdin_used+0x4cd>
    2b4a:	be 6e 3b 00 00       	mov    $0x3b6e,%esi
    2b4f:	48 8d 3d 15 05 00 00 	lea    0x515(%rip),%rdi        # 306b <_IO_stdin_used+0x46b>
    2b56:	e8 07 f6 ff ff       	callq  2162 <submitr>
    2b5b:	48 83 c4 10          	add    $0x10,%rsp
    2b5f:	89 45 fc             	mov    %eax,-0x4(%rbp)
    2b62:	8b 45 fc             	mov    -0x4(%rbp),%eax
    2b65:	eb 12                	jmp    2b79 <driver_post+0xad>
    2b67:	48 8b 45 d0          	mov    -0x30(%rbp),%rax
    2b6b:	66 c7 00 4f 4b       	movw   $0x4b4f,(%rax)
    2b70:	c6 40 02 00          	movb   $0x0,0x2(%rax)
    2b74:	b8 00 00 00 00       	mov    $0x0,%eax
    2b79:	c9                   	leaveq 
    2b7a:	c3                   	retq   
    2b7b:	0f 1f 44 00 00       	nopl   0x0(%rax,%rax,1)

0000000000002b80 <__libc_csu_init>:
    2b80:	41 57                	push   %r15
    2b82:	41 56                	push   %r14
    2b84:	41 89 ff             	mov    %edi,%r15d
    2b87:	41 55                	push   %r13
    2b89:	41 54                	push   %r12
    2b8b:	4c 8d 25 46 12 20 00 	lea    0x201246(%rip),%r12        # 203dd8 <__frame_dummy_init_array_entry>
    2b92:	55                   	push   %rbp
    2b93:	48 8d 2d 46 12 20 00 	lea    0x201246(%rip),%rbp        # 203de0 <__init_array_end>
    2b9a:	53                   	push   %rbx
    2b9b:	49 89 f6             	mov    %rsi,%r14
    2b9e:	49 89 d5             	mov    %rdx,%r13
    2ba1:	4c 29 e5             	sub    %r12,%rbp
    2ba4:	48 83 ec 08          	sub    $0x8,%rsp
    2ba8:	48 c1 fd 03          	sar    $0x3,%rbp
    2bac:	e8 ff e2 ff ff       	callq  eb0 <_init>
    2bb1:	48 85 ed             	test   %rbp,%rbp
    2bb4:	74 20                	je     2bd6 <__libc_csu_init+0x56>
    2bb6:	31 db                	xor    %ebx,%ebx
    2bb8:	0f 1f 84 00 00 00 00 	nopl   0x0(%rax,%rax,1)
    2bbf:	00 
    2bc0:	4c 89 ea             	mov    %r13,%rdx
    2bc3:	4c 89 f6             	mov    %r14,%rsi
    2bc6:	44 89 ff             	mov    %r15d,%edi
    2bc9:	41 ff 14 dc          	callq  *(%r12,%rbx,8)
    2bcd:	48 83 c3 01          	add    $0x1,%rbx
    2bd1:	48 39 dd             	cmp    %rbx,%rbp
    2bd4:	75 ea                	jne    2bc0 <__libc_csu_init+0x40>
    2bd6:	48 83 c4 08          	add    $0x8,%rsp
    2bda:	5b                   	pop    %rbx
    2bdb:	5d                   	pop    %rbp
    2bdc:	41 5c                	pop    %r12
    2bde:	41 5d                	pop    %r13
    2be0:	41 5e                	pop    %r14
    2be2:	41 5f                	pop    %r15
    2be4:	c3                   	retq   
    2be5:	90                   	nop
    2be6:	66 2e 0f 1f 84 00 00 	nopw   %cs:0x0(%rax,%rax,1)
    2bed:	00 00 00 

0000000000002bf0 <__libc_csu_fini>:
    2bf0:	f3 c3                	repz retq 

Disassembly of section .fini:

0000000000002bf4 <_fini>:
    2bf4:	48 83 ec 08          	sub    $0x8,%rsp
    2bf8:	48 83 c4 08          	add    $0x8,%rsp
    2bfc:	c3                   	retq   
